(dp1
S'outputs'
p2
(lp3
V63\u000a
p4
asS'testcases'
p5
(lp6
S'print breakeven()'
p7
asS'traces'
p8
(lp9
(dp10
S'pop_a'
p11
(lp12
(I0
S'myNaN'
p13
tp14
a(I1
g13
tp15
a(I2
g13
tp16
a(I3
g13
tp17
a(I4
g13
tp18
a(I5
g13
tp19
a(I6
g13
tp20
a(I7
g13
tp21
a(I8
g13
tp22
a(I9
g13
tp23
a(I10
g13
tp24
a(I11
g13
tp25
a(I12
g13
tp26
a(I13
I80000
tp27
a(I14
I80000
tp28
a(I15
I80000
tp29
a(I16
I80000
tp30
a(I17
I80000
tp31
a(I18
F82400
tp32
a(I19
F82400
tp33
a(I20
F82400
tp34
a(I21
F82400
tp35
a(I22
F84872
tp36
a(I23
F84872
tp37
a(I24
F84872
tp38
a(I25
F84872
tp39
a(I26
F87418.160000000003
tp40
a(I27
F87418.160000000003
tp41
a(I28
F87418.160000000003
tp42
a(I29
F87418.160000000003
tp43
a(I30
F90040.704800000007
tp44
a(I31
F90040.704800000007
tp45
a(I32
F90040.704800000007
tp46
a(I33
F90040.704800000007
tp47
a(I34
F92741.925944000002
tp48
a(I35
F92741.925944000002
tp49
a(I36
F92741.925944000002
tp50
a(I37
F92741.925944000002
tp51
a(I38
F95524.183722319998
tp52
a(I39
F95524.183722319998
tp53
a(I40
F95524.183722319998
tp54
a(I41
F95524.183722319998
tp55
a(I42
F98389.909233989601
tp56
a(I43
F98389.909233989601
tp57
a(I44
F98389.909233989601
tp58
a(I45
F98389.909233989601
tp59
a(I46
F101341.60651100929
tp60
a(I47
F101341.60651100929
tp61
a(I48
F101341.60651100929
tp62
a(I49
F101341.60651100929
tp63
a(I50
F104381.85470633957
tp64
a(I51
F104381.85470633957
tp65
a(I52
F104381.85470633957
tp66
a(I53
F104381.85470633957
tp67
a(I54
F107513.31034752975
tp68
a(I55
F107513.31034752975
tp69
a(I56
F107513.31034752975
tp70
a(I57
F107513.31034752975
tp71
a(I58
F110738.70965795565
tp72
a(I59
F110738.70965795565
tp73
a(I60
F110738.70965795565
tp74
a(I61
F110738.70965795565
tp75
a(I62
F114060.87094769432
tp76
a(I63
F114060.87094769432
tp77
a(I64
F114060.87094769432
tp78
a(I65
F114060.87094769432
tp79
a(I66
F117482.69707612516
tp80
a(I67
F117482.69707612516
tp81
a(I68
F117482.69707612516
tp82
a(I69
F117482.69707612516
tp83
a(I70
F121007.17798840892
tp84
a(I71
F121007.17798840892
tp85
a(I72
F121007.17798840892
tp86
a(I73
F121007.17798840892
tp87
a(I74
F124637.3933280612
tp88
a(I75
F124637.3933280612
tp89
a(I76
F124637.3933280612
tp90
a(I77
F124637.3933280612
tp91
a(I78
F128376.51512790304
tp92
a(I79
F128376.51512790304
tp93
a(I80
F128376.51512790304
tp94
a(I81
F128376.51512790304
tp95
a(I82
F132227.81058174014
tp96
a(I83
F132227.81058174014
tp97
a(I84
F132227.81058174014
tp98
a(I85
F132227.81058174014
tp99
a(I86
F136194.64489919235
tp100
a(I87
F136194.64489919235
tp101
a(I88
F136194.64489919235
tp102
a(I89
F136194.64489919235
tp103
a(I90
F140280.48424616814
tp104
a(I91
F140280.48424616814
tp105
a(I92
F140280.48424616814
tp106
a(I93
F140280.48424616814
tp107
a(I94
F144488.8987735532
tp108
a(I95
F144488.8987735532
tp109
a(I96
F144488.8987735532
tp110
a(I97
F144488.8987735532
tp111
a(I98
F148823.5657367598
tp112
a(I99
F148823.5657367598
tp113
a(I100
F148823.5657367598
tp114
a(I101
F148823.5657367598
tp115
a(I102
F153288.27270886261
tp116
a(I103
F153288.27270886261
tp117
a(I104
F153288.27270886261
tp118
a(I105
F153288.27270886261
tp119
a(I106
F157886.9208901285
tp120
a(I107
F157886.9208901285
tp121
a(I108
F157886.9208901285
tp122
a(I109
F157886.9208901285
tp123
a(I110
F162623.52851683236
tp124
a(I111
F162623.52851683236
tp125
a(I112
F162623.52851683236
tp126
a(I113
F162623.52851683236
tp127
a(I114
F167502.23437233735
tp128
a(I115
F167502.23437233735
tp129
a(I116
F167502.23437233735
tp130
a(I117
F167502.23437233735
tp131
a(I118
F172527.30140350747
tp132
a(I119
F172527.30140350747
tp133
a(I120
F172527.30140350747
tp134
a(I121
F172527.30140350747
tp135
a(I122
F177703.1204456127
tp136
a(I123
F177703.1204456127
tp137
a(I124
F177703.1204456127
tp138
a(I125
F177703.1204456127
tp139
a(I126
F183034.21405898107
tp140
a(I127
F183034.21405898107
tp141
a(I128
F183034.21405898107
tp142
a(I129
F183034.21405898107
tp143
a(I130
F188525.24048075051
tp144
a(I131
F188525.24048075051
tp145
a(I132
F188525.24048075051
tp146
a(I133
F188525.24048075051
tp147
a(I134
F194180.99769517302
tp148
a(I135
F194180.99769517302
tp149
a(I136
F194180.99769517302
tp150
a(I137
F194180.99769517302
tp151
a(I138
F200006.42762602822
tp152
a(I139
F200006.42762602822
tp153
a(I140
F200006.42762602822
tp154
a(I141
F200006.42762602822
tp155
a(I142
F206006.62045480908
tp156
a(I143
F206006.62045480908
tp157
a(I144
F206006.62045480908
tp158
a(I145
F206006.62045480908
tp159
a(I146
F212186.81906845336
tp160
a(I147
F212186.81906845336
tp161
a(I148
F212186.81906845336
tp162
a(I149
F212186.81906845336
tp163
a(I150
F218552.42364050698
tp164
a(I151
F218552.42364050698
tp165
a(I152
F218552.42364050698
tp166
a(I153
F218552.42364050698
tp167
a(I154
F225108.99634972221
tp168
a(I155
F225108.99634972221
tp169
a(I156
F225108.99634972221
tp170
a(I157
F225108.99634972221
tp171
a(I158
F231862.26624021388
tp172
a(I159
F231862.26624021388
tp173
a(I160
F231862.26624021388
tp174
a(I161
F231862.26624021388
tp175
a(I162
F238818.13422742029
tp176
a(I163
F238818.13422742029
tp177
a(I164
F238818.13422742029
tp178
a(I165
F238818.13422742029
tp179
a(I166
F245982.6782542429
tp180
a(I167
F245982.6782542429
tp181
a(I168
F245982.6782542429
tp182
a(I169
F245982.6782542429
tp183
a(I170
F253362.15860187018
tp184
a(I171
F253362.15860187018
tp185
a(I172
F253362.15860187018
tp186
a(I173
F253362.15860187018
tp187
a(I174
F260963.0233599263
tp188
a(I175
F260963.0233599263
tp189
a(I176
F260963.0233599263
tp190
a(I177
F260963.0233599263
tp191
a(I178
F268791.91406072408
tp192
a(I179
F268791.91406072408
tp193
a(I180
F268791.91406072408
tp194
a(I181
F268791.91406072408
tp195
a(I182
F276855.67148254579
tp196
a(I183
F276855.67148254579
tp197
a(I184
F276855.67148254579
tp198
a(I185
F276855.67148254579
tp199
a(I186
F285161.34162702219
tp200
a(I187
F285161.34162702219
tp201
a(I188
F285161.34162702219
tp202
a(I189
F285161.34162702219
tp203
a(I190
F293716.18187583284
tp204
a(I191
F293716.18187583284
tp205
a(I192
F293716.18187583284
tp206
a(I193
F293716.18187583284
tp207
a(I194
F302527.66733210784
tp208
a(I195
F302527.66733210784
tp209
a(I196
F302527.66733210784
tp210
a(I197
F302527.66733210784
tp211
a(I198
F311603.49735207111
tp212
a(I199
F311603.49735207111
tp213
a(I200
F311603.49735207111
tp214
a(I201
F311603.49735207111
tp215
a(I202
F320951.60227263323
tp216
a(I203
F320951.60227263323
tp217
a(I204
F320951.60227263323
tp218
a(I205
F320951.60227263323
tp219
a(I206
F330580.15034081222
tp220
a(I207
F330580.15034081222
tp221
a(I208
F330580.15034081222
tp222
a(I209
F330580.15034081222
tp223
a(I210
F340497.55485103658
tp224
a(I211
F340497.55485103658
tp225
a(I212
F340497.55485103658
tp226
a(I213
F340497.55485103658
tp227
a(I214
F350712.48149656766
tp228
a(I215
F350712.48149656766
tp229
a(I216
F350712.48149656766
tp230
a(I217
F350712.48149656766
tp231
a(I218
F361233.85594146472
tp232
a(I219
F361233.85594146472
tp233
a(I220
F361233.85594146472
tp234
a(I221
F361233.85594146472
tp235
a(I222
F372070.87161970866
tp236
a(I223
F372070.87161970866
tp237
a(I224
F372070.87161970866
tp238
a(I225
F372070.87161970866
tp239
a(I226
F383232.99776829995
tp240
a(I227
F383232.99776829995
tp241
a(I228
F383232.99776829995
tp242
a(I229
F383232.99776829995
tp243
a(I230
F394729.98770134896
tp244
a(I231
F394729.98770134896
tp245
a(I232
F394729.98770134896
tp246
a(I233
F394729.98770134896
tp247
a(I234
F406571.88733238942
tp248
a(I235
F406571.88733238942
tp249
a(I236
F406571.88733238942
tp250
a(I237
F406571.88733238942
tp251
a(I238
F418769.0439523611
tp252
a(I239
F418769.0439523611
tp253
a(I240
F418769.0439523611
tp254
a(I241
F418769.0439523611
tp255
a(I242
F431332.11527093191
tp256
a(I243
F431332.11527093191
tp257
a(I244
F431332.11527093191
tp258
a(I245
F431332.11527093191
tp259
a(I246
F444272.0787290599
tp260
a(I247
F444272.0787290599
tp261
a(I248
F444272.0787290599
tp262
a(I249
F444272.0787290599
tp263
a(I250
F457600.2410909317
tp264
a(I251
F457600.2410909317
tp265
a(I252
F457600.2410909317
tp266
a(I253
F457600.2410909317
tp267
a(I254
F471328.24832365965
tp268
a(I255
F471328.24832365965
tp269
a(I256
F471328.24832365965
tp270
a(I257
F471328.24832365965
tp271
a(I258
F485468.09577336942
tp272
a(I259
F485468.09577336942
tp273
a(I260
F485468.09577336942
tp274
a(I261
F485468.09577336942
tp275
a(I262
F500032.1386465705
tp276
a(I263
F500032.1386465705
tp277
a(I264
F500032.1386465705
tp278
a(I265
F500032.1386465705
tp279
a(I266
F515033.10280596762
tp280
a(I267
F515033.10280596762
tp281
a(I268
F515033.10280596762
tp282
a(I269
F515033.10280596762
tp283
a(I270
F515033.10280596762
tp284
a(I271
g13
tp285
asS'anos'
p286
(lp287
(I0
g13
tp288
a(I1
g13
tp289
a(I2
g13
tp290
a(I3
g13
tp291
a(I4
g13
tp292
a(I5
g13
tp293
a(I6
g13
tp294
a(I7
g13
tp295
a(I8
g13
tp296
a(I9
g13
tp297
a(I10
g13
tp298
a(I11
g13
tp299
a(I12
I0
tp300
a(I13
I0
tp301
a(I14
I0
tp302
a(I15
I0
tp303
a(I16
I0
tp304
a(I17
I0
tp305
a(I18
I0
tp306
a(I19
I0
tp307
a(I20
I1
tp308
a(I21
I1
tp309
a(I22
I1
tp310
a(I23
I1
tp311
a(I24
I2
tp312
a(I25
I2
tp313
a(I26
I2
tp314
a(I27
I2
tp315
a(I28
I3
tp316
a(I29
I3
tp317
a(I30
I3
tp318
a(I31
I3
tp319
a(I32
I4
tp320
a(I33
I4
tp321
a(I34
I4
tp322
a(I35
I4
tp323
a(I36
I5
tp324
a(I37
I5
tp325
a(I38
I5
tp326
a(I39
I5
tp327
a(I40
I6
tp328
a(I41
I6
tp329
a(I42
I6
tp330
a(I43
I6
tp331
a(I44
I7
tp332
a(I45
I7
tp333
a(I46
I7
tp334
a(I47
I7
tp335
a(I48
I8
tp336
a(I49
I8
tp337
a(I50
I8
tp338
a(I51
I8
tp339
a(I52
I9
tp340
a(I53
I9
tp341
a(I54
I9
tp342
a(I55
I9
tp343
a(I56
I10
tp344
a(I57
I10
tp345
a(I58
I10
tp346
a(I59
I10
tp347
a(I60
I11
tp348
a(I61
I11
tp349
a(I62
I11
tp350
a(I63
I11
tp351
a(I64
I12
tp352
a(I65
I12
tp353
a(I66
I12
tp354
a(I67
I12
tp355
a(I68
I13
tp356
a(I69
I13
tp357
a(I70
I13
tp358
a(I71
I13
tp359
a(I72
I14
tp360
a(I73
I14
tp361
a(I74
I14
tp362
a(I75
I14
tp363
a(I76
I15
tp364
a(I77
I15
tp365
a(I78
I15
tp366
a(I79
I15
tp367
a(I80
I16
tp368
a(I81
I16
tp369
a(I82
I16
tp370
a(I83
I16
tp371
a(I84
I17
tp372
a(I85
I17
tp373
a(I86
I17
tp374
a(I87
I17
tp375
a(I88
I18
tp376
a(I89
I18
tp377
a(I90
I18
tp378
a(I91
I18
tp379
a(I92
I19
tp380
a(I93
I19
tp381
a(I94
I19
tp382
a(I95
I19
tp383
a(I96
I20
tp384
a(I97
I20
tp385
a(I98
I20
tp386
a(I99
I20
tp387
a(I100
I21
tp388
a(I101
I21
tp389
a(I102
I21
tp390
a(I103
I21
tp391
a(I104
I22
tp392
a(I105
I22
tp393
a(I106
I22
tp394
a(I107
I22
tp395
a(I108
I23
tp396
a(I109
I23
tp397
a(I110
I23
tp398
a(I111
I23
tp399
a(I112
I24
tp400
a(I113
I24
tp401
a(I114
I24
tp402
a(I115
I24
tp403
a(I116
I25
tp404
a(I117
I25
tp405
a(I118
I25
tp406
a(I119
I25
tp407
a(I120
I26
tp408
a(I121
I26
tp409
a(I122
I26
tp410
a(I123
I26
tp411
a(I124
I27
tp412
a(I125
I27
tp413
a(I126
I27
tp414
a(I127
I27
tp415
a(I128
I28
tp416
a(I129
I28
tp417
a(I130
I28
tp418
a(I131
I28
tp419
a(I132
I29
tp420
a(I133
I29
tp421
a(I134
I29
tp422
a(I135
I29
tp423
a(I136
I30
tp424
a(I137
I30
tp425
a(I138
I30
tp426
a(I139
I30
tp427
a(I140
I31
tp428
a(I141
I31
tp429
a(I142
I31
tp430
a(I143
I31
tp431
a(I144
I32
tp432
a(I145
I32
tp433
a(I146
I32
tp434
a(I147
I32
tp435
a(I148
I33
tp436
a(I149
I33
tp437
a(I150
I33
tp438
a(I151
I33
tp439
a(I152
I34
tp440
a(I153
I34
tp441
a(I154
I34
tp442
a(I155
I34
tp443
a(I156
I35
tp444
a(I157
I35
tp445
a(I158
I35
tp446
a(I159
I35
tp447
a(I160
I36
tp448
a(I161
I36
tp449
a(I162
I36
tp450
a(I163
I36
tp451
a(I164
I37
tp452
a(I165
I37
tp453
a(I166
I37
tp454
a(I167
I37
tp455
a(I168
I38
tp456
a(I169
I38
tp457
a(I170
I38
tp458
a(I171
I38
tp459
a(I172
I39
tp460
a(I173
I39
tp461
a(I174
I39
tp462
a(I175
I39
tp463
a(I176
I40
tp464
a(I177
I40
tp465
a(I178
I40
tp466
a(I179
I40
tp467
a(I180
I41
tp468
a(I181
I41
tp469
a(I182
I41
tp470
a(I183
I41
tp471
a(I184
I42
tp472
a(I185
I42
tp473
a(I186
I42
tp474
a(I187
I42
tp475
a(I188
I43
tp476
a(I189
I43
tp477
a(I190
I43
tp478
a(I191
I43
tp479
a(I192
I44
tp480
a(I193
I44
tp481
a(I194
I44
tp482
a(I195
I44
tp483
a(I196
I45
tp484
a(I197
I45
tp485
a(I198
I45
tp486
a(I199
I45
tp487
a(I200
I46
tp488
a(I201
I46
tp489
a(I202
I46
tp490
a(I203
I46
tp491
a(I204
I47
tp492
a(I205
I47
tp493
a(I206
I47
tp494
a(I207
I47
tp495
a(I208
I48
tp496
a(I209
I48
tp497
a(I210
I48
tp498
a(I211
I48
tp499
a(I212
I49
tp500
a(I213
I49
tp501
a(I214
I49
tp502
a(I215
I49
tp503
a(I216
I50
tp504
a(I217
I50
tp505
a(I218
I50
tp506
a(I219
I50
tp507
a(I220
I51
tp508
a(I221
I51
tp509
a(I222
I51
tp510
a(I223
I51
tp511
a(I224
I52
tp512
a(I225
I52
tp513
a(I226
I52
tp514
a(I227
I52
tp515
a(I228
I53
tp516
a(I229
I53
tp517
a(I230
I53
tp518
a(I231
I53
tp519
a(I232
I54
tp520
a(I233
I54
tp521
a(I234
I54
tp522
a(I235
I54
tp523
a(I236
I55
tp524
a(I237
I55
tp525
a(I238
I55
tp526
a(I239
I55
tp527
a(I240
I56
tp528
a(I241
I56
tp529
a(I242
I56
tp530
a(I243
I56
tp531
a(I244
I57
tp532
a(I245
I57
tp533
a(I246
I57
tp534
a(I247
I57
tp535
a(I248
I58
tp536
a(I249
I58
tp537
a(I250
I58
tp538
a(I251
I58
tp539
a(I252
I59
tp540
a(I253
I59
tp541
a(I254
I59
tp542
a(I255
I59
tp543
a(I256
I60
tp544
a(I257
I60
tp545
a(I258
I60
tp546
a(I259
I60
tp547
a(I260
I61
tp548
a(I261
I61
tp549
a(I262
I61
tp550
a(I263
I61
tp551
a(I264
I62
tp552
a(I265
I62
tp553
a(I266
I62
tp554
a(I267
I62
tp555
a(I268
I63
tp556
a(I269
I63
tp557
a(I270
I63
tp558
a(I271
g13
tp559
asS'taxa_b'
p560
(lp561
(I0
g13
tp562
a(I1
g13
tp563
a(I2
g13
tp564
a(I3
g13
tp565
a(I4
g13
tp566
a(I5
g13
tp567
a(I6
g13
tp568
a(I7
g13
tp569
a(I8
g13
tp570
a(I9
g13
tp571
a(I10
g13
tp572
a(I11
g13
tp573
a(I12
g13
tp574
a(I13
g13
tp575
a(I14
g13
tp576
a(I15
g13
tp577
a(I16
F1.0149999999999999
tp578
a(I17
F1.0149999999999999
tp579
a(I18
F1.0149999999999999
tp580
a(I19
F1.0149999999999999
tp581
a(I20
F1.0149999999999999
tp582
a(I21
F1.0149999999999999
tp583
a(I22
F1.0149999999999999
tp584
a(I23
F1.0149999999999999
tp585
a(I24
F1.0149999999999999
tp586
a(I25
F1.0149999999999999
tp587
a(I26
F1.0149999999999999
tp588
a(I27
F1.0149999999999999
tp589
a(I28
F1.0149999999999999
tp590
a(I29
F1.0149999999999999
tp591
a(I30
F1.0149999999999999
tp592
a(I31
F1.0149999999999999
tp593
a(I32
F1.0149999999999999
tp594
a(I33
F1.0149999999999999
tp595
a(I34
F1.0149999999999999
tp596
a(I35
F1.0149999999999999
tp597
a(I36
F1.0149999999999999
tp598
a(I37
F1.0149999999999999
tp599
a(I38
F1.0149999999999999
tp600
a(I39
F1.0149999999999999
tp601
a(I40
F1.0149999999999999
tp602
a(I41
F1.0149999999999999
tp603
a(I42
F1.0149999999999999
tp604
a(I43
F1.0149999999999999
tp605
a(I44
F1.0149999999999999
tp606
a(I45
F1.0149999999999999
tp607
a(I46
F1.0149999999999999
tp608
a(I47
F1.0149999999999999
tp609
a(I48
F1.0149999999999999
tp610
a(I49
F1.0149999999999999
tp611
a(I50
F1.0149999999999999
tp612
a(I51
F1.0149999999999999
tp613
a(I52
F1.0149999999999999
tp614
a(I53
F1.0149999999999999
tp615
a(I54
F1.0149999999999999
tp616
a(I55
F1.0149999999999999
tp617
a(I56
F1.0149999999999999
tp618
a(I57
F1.0149999999999999
tp619
a(I58
F1.0149999999999999
tp620
a(I59
F1.0149999999999999
tp621
a(I60
F1.0149999999999999
tp622
a(I61
F1.0149999999999999
tp623
a(I62
F1.0149999999999999
tp624
a(I63
F1.0149999999999999
tp625
a(I64
F1.0149999999999999
tp626
a(I65
F1.0149999999999999
tp627
a(I66
F1.0149999999999999
tp628
a(I67
F1.0149999999999999
tp629
a(I68
F1.0149999999999999
tp630
a(I69
F1.0149999999999999
tp631
a(I70
F1.0149999999999999
tp632
a(I71
F1.0149999999999999
tp633
a(I72
F1.0149999999999999
tp634
a(I73
F1.0149999999999999
tp635
a(I74
F1.0149999999999999
tp636
a(I75
F1.0149999999999999
tp637
a(I76
F1.0149999999999999
tp638
a(I77
F1.0149999999999999
tp639
a(I78
F1.0149999999999999
tp640
a(I79
F1.0149999999999999
tp641
a(I80
F1.0149999999999999
tp642
a(I81
F1.0149999999999999
tp643
a(I82
F1.0149999999999999
tp644
a(I83
F1.0149999999999999
tp645
a(I84
F1.0149999999999999
tp646
a(I85
F1.0149999999999999
tp647
a(I86
F1.0149999999999999
tp648
a(I87
F1.0149999999999999
tp649
a(I88
F1.0149999999999999
tp650
a(I89
F1.0149999999999999
tp651
a(I90
F1.0149999999999999
tp652
a(I91
F1.0149999999999999
tp653
a(I92
F1.0149999999999999
tp654
a(I93
F1.0149999999999999
tp655
a(I94
F1.0149999999999999
tp656
a(I95
F1.0149999999999999
tp657
a(I96
F1.0149999999999999
tp658
a(I97
F1.0149999999999999
tp659
a(I98
F1.0149999999999999
tp660
a(I99
F1.0149999999999999
tp661
a(I100
F1.0149999999999999
tp662
a(I101
F1.0149999999999999
tp663
a(I102
F1.0149999999999999
tp664
a(I103
F1.0149999999999999
tp665
a(I104
F1.0149999999999999
tp666
a(I105
F1.0149999999999999
tp667
a(I106
F1.0149999999999999
tp668
a(I107
F1.0149999999999999
tp669
a(I108
F1.0149999999999999
tp670
a(I109
F1.0149999999999999
tp671
a(I110
F1.0149999999999999
tp672
a(I111
F1.0149999999999999
tp673
a(I112
F1.0149999999999999
tp674
a(I113
F1.0149999999999999
tp675
a(I114
F1.0149999999999999
tp676
a(I115
F1.0149999999999999
tp677
a(I116
F1.0149999999999999
tp678
a(I117
F1.0149999999999999
tp679
a(I118
F1.0149999999999999
tp680
a(I119
F1.0149999999999999
tp681
a(I120
F1.0149999999999999
tp682
a(I121
F1.0149999999999999
tp683
a(I122
F1.0149999999999999
tp684
a(I123
F1.0149999999999999
tp685
a(I124
F1.0149999999999999
tp686
a(I125
F1.0149999999999999
tp687
a(I126
F1.0149999999999999
tp688
a(I127
F1.0149999999999999
tp689
a(I128
F1.0149999999999999
tp690
a(I129
F1.0149999999999999
tp691
a(I130
F1.0149999999999999
tp692
a(I131
F1.0149999999999999
tp693
a(I132
F1.0149999999999999
tp694
a(I133
F1.0149999999999999
tp695
a(I134
F1.0149999999999999
tp696
a(I135
F1.0149999999999999
tp697
a(I136
F1.0149999999999999
tp698
a(I137
F1.0149999999999999
tp699
a(I138
F1.0149999999999999
tp700
a(I139
F1.0149999999999999
tp701
a(I140
F1.0149999999999999
tp702
a(I141
F1.0149999999999999
tp703
a(I142
F1.0149999999999999
tp704
a(I143
F1.0149999999999999
tp705
a(I144
F1.0149999999999999
tp706
a(I145
F1.0149999999999999
tp707
a(I146
F1.0149999999999999
tp708
a(I147
F1.0149999999999999
tp709
a(I148
F1.0149999999999999
tp710
a(I149
F1.0149999999999999
tp711
a(I150
F1.0149999999999999
tp712
a(I151
F1.0149999999999999
tp713
a(I152
F1.0149999999999999
tp714
a(I153
F1.0149999999999999
tp715
a(I154
F1.0149999999999999
tp716
a(I155
F1.0149999999999999
tp717
a(I156
F1.0149999999999999
tp718
a(I157
F1.0149999999999999
tp719
a(I158
F1.0149999999999999
tp720
a(I159
F1.0149999999999999
tp721
a(I160
F1.0149999999999999
tp722
a(I161
F1.0149999999999999
tp723
a(I162
F1.0149999999999999
tp724
a(I163
F1.0149999999999999
tp725
a(I164
F1.0149999999999999
tp726
a(I165
F1.0149999999999999
tp727
a(I166
F1.0149999999999999
tp728
a(I167
F1.0149999999999999
tp729
a(I168
F1.0149999999999999
tp730
a(I169
F1.0149999999999999
tp731
a(I170
F1.0149999999999999
tp732
a(I171
F1.0149999999999999
tp733
a(I172
F1.0149999999999999
tp734
a(I173
F1.0149999999999999
tp735
a(I174
F1.0149999999999999
tp736
a(I175
F1.0149999999999999
tp737
a(I176
F1.0149999999999999
tp738
a(I177
F1.0149999999999999
tp739
a(I178
F1.0149999999999999
tp740
a(I179
F1.0149999999999999
tp741
a(I180
F1.0149999999999999
tp742
a(I181
F1.0149999999999999
tp743
a(I182
F1.0149999999999999
tp744
a(I183
F1.0149999999999999
tp745
a(I184
F1.0149999999999999
tp746
a(I185
F1.0149999999999999
tp747
a(I186
F1.0149999999999999
tp748
a(I187
F1.0149999999999999
tp749
a(I188
F1.0149999999999999
tp750
a(I189
F1.0149999999999999
tp751
a(I190
F1.0149999999999999
tp752
a(I191
F1.0149999999999999
tp753
a(I192
F1.0149999999999999
tp754
a(I193
F1.0149999999999999
tp755
a(I194
F1.0149999999999999
tp756
a(I195
F1.0149999999999999
tp757
a(I196
F1.0149999999999999
tp758
a(I197
F1.0149999999999999
tp759
a(I198
F1.0149999999999999
tp760
a(I199
F1.0149999999999999
tp761
a(I200
F1.0149999999999999
tp762
a(I201
F1.0149999999999999
tp763
a(I202
F1.0149999999999999
tp764
a(I203
F1.0149999999999999
tp765
a(I204
F1.0149999999999999
tp766
a(I205
F1.0149999999999999
tp767
a(I206
F1.0149999999999999
tp768
a(I207
F1.0149999999999999
tp769
a(I208
F1.0149999999999999
tp770
a(I209
F1.0149999999999999
tp771
a(I210
F1.0149999999999999
tp772
a(I211
F1.0149999999999999
tp773
a(I212
F1.0149999999999999
tp774
a(I213
F1.0149999999999999
tp775
a(I214
F1.0149999999999999
tp776
a(I215
F1.0149999999999999
tp777
a(I216
F1.0149999999999999
tp778
a(I217
F1.0149999999999999
tp779
a(I218
F1.0149999999999999
tp780
a(I219
F1.0149999999999999
tp781
a(I220
F1.0149999999999999
tp782
a(I221
F1.0149999999999999
tp783
a(I222
F1.0149999999999999
tp784
a(I223
F1.0149999999999999
tp785
a(I224
F1.0149999999999999
tp786
a(I225
F1.0149999999999999
tp787
a(I226
F1.0149999999999999
tp788
a(I227
F1.0149999999999999
tp789
a(I228
F1.0149999999999999
tp790
a(I229
F1.0149999999999999
tp791
a(I230
F1.0149999999999999
tp792
a(I231
F1.0149999999999999
tp793
a(I232
F1.0149999999999999
tp794
a(I233
F1.0149999999999999
tp795
a(I234
F1.0149999999999999
tp796
a(I235
F1.0149999999999999
tp797
a(I236
F1.0149999999999999
tp798
a(I237
F1.0149999999999999
tp799
a(I238
F1.0149999999999999
tp800
a(I239
F1.0149999999999999
tp801
a(I240
F1.0149999999999999
tp802
a(I241
F1.0149999999999999
tp803
a(I242
F1.0149999999999999
tp804
a(I243
F1.0149999999999999
tp805
a(I244
F1.0149999999999999
tp806
a(I245
F1.0149999999999999
tp807
a(I246
F1.0149999999999999
tp808
a(I247
F1.0149999999999999
tp809
a(I248
F1.0149999999999999
tp810
a(I249
F1.0149999999999999
tp811
a(I250
F1.0149999999999999
tp812
a(I251
F1.0149999999999999
tp813
a(I252
F1.0149999999999999
tp814
a(I253
F1.0149999999999999
tp815
a(I254
F1.0149999999999999
tp816
a(I255
F1.0149999999999999
tp817
a(I256
F1.0149999999999999
tp818
a(I257
F1.0149999999999999
tp819
a(I258
F1.0149999999999999
tp820
a(I259
F1.0149999999999999
tp821
a(I260
F1.0149999999999999
tp822
a(I261
F1.0149999999999999
tp823
a(I262
F1.0149999999999999
tp824
a(I263
F1.0149999999999999
tp825
a(I264
F1.0149999999999999
tp826
a(I265
F1.0149999999999999
tp827
a(I266
F1.0149999999999999
tp828
a(I267
F1.0149999999999999
tp829
a(I268
F1.0149999999999999
tp830
a(I269
F1.0149999999999999
tp831
a(I270
F1.0149999999999999
tp832
a(I271
g13
tp833
asS'taxa_a'
p834
(lp835
(I0
g13
tp836
a(I1
g13
tp837
a(I2
g13
tp838
a(I3
g13
tp839
a(I4
g13
tp840
a(I5
g13
tp841
a(I6
g13
tp842
a(I7
g13
tp843
a(I8
g13
tp844
a(I9
g13
tp845
a(I10
g13
tp846
a(I11
g13
tp847
a(I12
g13
tp848
a(I13
g13
tp849
a(I14
g13
tp850
a(I15
F1.03
tp851
a(I16
F1.03
tp852
a(I17
F1.03
tp853
a(I18
F1.03
tp854
a(I19
F1.03
tp855
a(I20
F1.03
tp856
a(I21
F1.03
tp857
a(I22
F1.03
tp858
a(I23
F1.03
tp859
a(I24
F1.03
tp860
a(I25
F1.03
tp861
a(I26
F1.03
tp862
a(I27
F1.03
tp863
a(I28
F1.03
tp864
a(I29
F1.03
tp865
a(I30
F1.03
tp866
a(I31
F1.03
tp867
a(I32
F1.03
tp868
a(I33
F1.03
tp869
a(I34
F1.03
tp870
a(I35
F1.03
tp871
a(I36
F1.03
tp872
a(I37
F1.03
tp873
a(I38
F1.03
tp874
a(I39
F1.03
tp875
a(I40
F1.03
tp876
a(I41
F1.03
tp877
a(I42
F1.03
tp878
a(I43
F1.03
tp879
a(I44
F1.03
tp880
a(I45
F1.03
tp881
a(I46
F1.03
tp882
a(I47
F1.03
tp883
a(I48
F1.03
tp884
a(I49
F1.03
tp885
a(I50
F1.03
tp886
a(I51
F1.03
tp887
a(I52
F1.03
tp888
a(I53
F1.03
tp889
a(I54
F1.03
tp890
a(I55
F1.03
tp891
a(I56
F1.03
tp892
a(I57
F1.03
tp893
a(I58
F1.03
tp894
a(I59
F1.03
tp895
a(I60
F1.03
tp896
a(I61
F1.03
tp897
a(I62
F1.03
tp898
a(I63
F1.03
tp899
a(I64
F1.03
tp900
a(I65
F1.03
tp901
a(I66
F1.03
tp902
a(I67
F1.03
tp903
a(I68
F1.03
tp904
a(I69
F1.03
tp905
a(I70
F1.03
tp906
a(I71
F1.03
tp907
a(I72
F1.03
tp908
a(I73
F1.03
tp909
a(I74
F1.03
tp910
a(I75
F1.03
tp911
a(I76
F1.03
tp912
a(I77
F1.03
tp913
a(I78
F1.03
tp914
a(I79
F1.03
tp915
a(I80
F1.03
tp916
a(I81
F1.03
tp917
a(I82
F1.03
tp918
a(I83
F1.03
tp919
a(I84
F1.03
tp920
a(I85
F1.03
tp921
a(I86
F1.03
tp922
a(I87
F1.03
tp923
a(I88
F1.03
tp924
a(I89
F1.03
tp925
a(I90
F1.03
tp926
a(I91
F1.03
tp927
a(I92
F1.03
tp928
a(I93
F1.03
tp929
a(I94
F1.03
tp930
a(I95
F1.03
tp931
a(I96
F1.03
tp932
a(I97
F1.03
tp933
a(I98
F1.03
tp934
a(I99
F1.03
tp935
a(I100
F1.03
tp936
a(I101
F1.03
tp937
a(I102
F1.03
tp938
a(I103
F1.03
tp939
a(I104
F1.03
tp940
a(I105
F1.03
tp941
a(I106
F1.03
tp942
a(I107
F1.03
tp943
a(I108
F1.03
tp944
a(I109
F1.03
tp945
a(I110
F1.03
tp946
a(I111
F1.03
tp947
a(I112
F1.03
tp948
a(I113
F1.03
tp949
a(I114
F1.03
tp950
a(I115
F1.03
tp951
a(I116
F1.03
tp952
a(I117
F1.03
tp953
a(I118
F1.03
tp954
a(I119
F1.03
tp955
a(I120
F1.03
tp956
a(I121
F1.03
tp957
a(I122
F1.03
tp958
a(I123
F1.03
tp959
a(I124
F1.03
tp960
a(I125
F1.03
tp961
a(I126
F1.03
tp962
a(I127
F1.03
tp963
a(I128
F1.03
tp964
a(I129
F1.03
tp965
a(I130
F1.03
tp966
a(I131
F1.03
tp967
a(I132
F1.03
tp968
a(I133
F1.03
tp969
a(I134
F1.03
tp970
a(I135
F1.03
tp971
a(I136
F1.03
tp972
a(I137
F1.03
tp973
a(I138
F1.03
tp974
a(I139
F1.03
tp975
a(I140
F1.03
tp976
a(I141
F1.03
tp977
a(I142
F1.03
tp978
a(I143
F1.03
tp979
a(I144
F1.03
tp980
a(I145
F1.03
tp981
a(I146
F1.03
tp982
a(I147
F1.03
tp983
a(I148
F1.03
tp984
a(I149
F1.03
tp985
a(I150
F1.03
tp986
a(I151
F1.03
tp987
a(I152
F1.03
tp988
a(I153
F1.03
tp989
a(I154
F1.03
tp990
a(I155
F1.03
tp991
a(I156
F1.03
tp992
a(I157
F1.03
tp993
a(I158
F1.03
tp994
a(I159
F1.03
tp995
a(I160
F1.03
tp996
a(I161
F1.03
tp997
a(I162
F1.03
tp998
a(I163
F1.03
tp999
a(I164
F1.03
tp1000
a(I165
F1.03
tp1001
a(I166
F1.03
tp1002
a(I167
F1.03
tp1003
a(I168
F1.03
tp1004
a(I169
F1.03
tp1005
a(I170
F1.03
tp1006
a(I171
F1.03
tp1007
a(I172
F1.03
tp1008
a(I173
F1.03
tp1009
a(I174
F1.03
tp1010
a(I175
F1.03
tp1011
a(I176
F1.03
tp1012
a(I177
F1.03
tp1013
a(I178
F1.03
tp1014
a(I179
F1.03
tp1015
a(I180
F1.03
tp1016
a(I181
F1.03
tp1017
a(I182
F1.03
tp1018
a(I183
F1.03
tp1019
a(I184
F1.03
tp1020
a(I185
F1.03
tp1021
a(I186
F1.03
tp1022
a(I187
F1.03
tp1023
a(I188
F1.03
tp1024
a(I189
F1.03
tp1025
a(I190
F1.03
tp1026
a(I191
F1.03
tp1027
a(I192
F1.03
tp1028
a(I193
F1.03
tp1029
a(I194
F1.03
tp1030
a(I195
F1.03
tp1031
a(I196
F1.03
tp1032
a(I197
F1.03
tp1033
a(I198
F1.03
tp1034
a(I199
F1.03
tp1035
a(I200
F1.03
tp1036
a(I201
F1.03
tp1037
a(I202
F1.03
tp1038
a(I203
F1.03
tp1039
a(I204
F1.03
tp1040
a(I205
F1.03
tp1041
a(I206
F1.03
tp1042
a(I207
F1.03
tp1043
a(I208
F1.03
tp1044
a(I209
F1.03
tp1045
a(I210
F1.03
tp1046
a(I211
F1.03
tp1047
a(I212
F1.03
tp1048
a(I213
F1.03
tp1049
a(I214
F1.03
tp1050
a(I215
F1.03
tp1051
a(I216
F1.03
tp1052
a(I217
F1.03
tp1053
a(I218
F1.03
tp1054
a(I219
F1.03
tp1055
a(I220
F1.03
tp1056
a(I221
F1.03
tp1057
a(I222
F1.03
tp1058
a(I223
F1.03
tp1059
a(I224
F1.03
tp1060
a(I225
F1.03
tp1061
a(I226
F1.03
tp1062
a(I227
F1.03
tp1063
a(I228
F1.03
tp1064
a(I229
F1.03
tp1065
a(I230
F1.03
tp1066
a(I231
F1.03
tp1067
a(I232
F1.03
tp1068
a(I233
F1.03
tp1069
a(I234
F1.03
tp1070
a(I235
F1.03
tp1071
a(I236
F1.03
tp1072
a(I237
F1.03
tp1073
a(I238
F1.03
tp1074
a(I239
F1.03
tp1075
a(I240
F1.03
tp1076
a(I241
F1.03
tp1077
a(I242
F1.03
tp1078
a(I243
F1.03
tp1079
a(I244
F1.03
tp1080
a(I245
F1.03
tp1081
a(I246
F1.03
tp1082
a(I247
F1.03
tp1083
a(I248
F1.03
tp1084
a(I249
F1.03
tp1085
a(I250
F1.03
tp1086
a(I251
F1.03
tp1087
a(I252
F1.03
tp1088
a(I253
F1.03
tp1089
a(I254
F1.03
tp1090
a(I255
F1.03
tp1091
a(I256
F1.03
tp1092
a(I257
F1.03
tp1093
a(I258
F1.03
tp1094
a(I259
F1.03
tp1095
a(I260
F1.03
tp1096
a(I261
F1.03
tp1097
a(I262
F1.03
tp1098
a(I263
F1.03
tp1099
a(I264
F1.03
tp1100
a(I265
F1.03
tp1101
a(I266
F1.03
tp1102
a(I267
F1.03
tp1103
a(I268
F1.03
tp1104
a(I269
F1.03
tp1105
a(I270
F1.03
tp1106
a(I271
g13
tp1107
asS'__return__'
p1108
(lp1109
(I0
g13
tp1110
a(I1
g13
tp1111
a(I2
g13
tp1112
a(I3
g13
tp1113
a(I4
g13
tp1114
a(I5
g13
tp1115
a(I6
g13
tp1116
a(I7
g13
tp1117
a(I8
g13
tp1118
a(I9
g13
tp1119
a(I10
g13
tp1120
a(I11
g13
tp1121
a(I12
g13
tp1122
a(I13
g13
tp1123
a(I14
g13
tp1124
a(I15
g13
tp1125
a(I16
g13
tp1126
a(I17
g13
tp1127
a(I18
g13
tp1128
a(I19
g13
tp1129
a(I20
g13
tp1130
a(I21
g13
tp1131
a(I22
g13
tp1132
a(I23
g13
tp1133
a(I24
g13
tp1134
a(I25
g13
tp1135
a(I26
g13
tp1136
a(I27
g13
tp1137
a(I28
g13
tp1138
a(I29
g13
tp1139
a(I30
g13
tp1140
a(I31
g13
tp1141
a(I32
g13
tp1142
a(I33
g13
tp1143
a(I34
g13
tp1144
a(I35
g13
tp1145
a(I36
g13
tp1146
a(I37
g13
tp1147
a(I38
g13
tp1148
a(I39
g13
tp1149
a(I40
g13
tp1150
a(I41
g13
tp1151
a(I42
g13
tp1152
a(I43
g13
tp1153
a(I44
g13
tp1154
a(I45
g13
tp1155
a(I46
g13
tp1156
a(I47
g13
tp1157
a(I48
g13
tp1158
a(I49
g13
tp1159
a(I50
g13
tp1160
a(I51
g13
tp1161
a(I52
g13
tp1162
a(I53
g13
tp1163
a(I54
g13
tp1164
a(I55
g13
tp1165
a(I56
g13
tp1166
a(I57
g13
tp1167
a(I58
g13
tp1168
a(I59
g13
tp1169
a(I60
g13
tp1170
a(I61
g13
tp1171
a(I62
g13
tp1172
a(I63
g13
tp1173
a(I64
g13
tp1174
a(I65
g13
tp1175
a(I66
g13
tp1176
a(I67
g13
tp1177
a(I68
g13
tp1178
a(I69
g13
tp1179
a(I70
g13
tp1180
a(I71
g13
tp1181
a(I72
g13
tp1182
a(I73
g13
tp1183
a(I74
g13
tp1184
a(I75
g13
tp1185
a(I76
g13
tp1186
a(I77
g13
tp1187
a(I78
g13
tp1188
a(I79
g13
tp1189
a(I80
g13
tp1190
a(I81
g13
tp1191
a(I82
g13
tp1192
a(I83
g13
tp1193
a(I84
g13
tp1194
a(I85
g13
tp1195
a(I86
g13
tp1196
a(I87
g13
tp1197
a(I88
g13
tp1198
a(I89
g13
tp1199
a(I90
g13
tp1200
a(I91
g13
tp1201
a(I92
g13
tp1202
a(I93
g13
tp1203
a(I94
g13
tp1204
a(I95
g13
tp1205
a(I96
g13
tp1206
a(I97
g13
tp1207
a(I98
g13
tp1208
a(I99
g13
tp1209
a(I100
g13
tp1210
a(I101
g13
tp1211
a(I102
g13
tp1212
a(I103
g13
tp1213
a(I104
g13
tp1214
a(I105
g13
tp1215
a(I106
g13
tp1216
a(I107
g13
tp1217
a(I108
g13
tp1218
a(I109
g13
tp1219
a(I110
g13
tp1220
a(I111
g13
tp1221
a(I112
g13
tp1222
a(I113
g13
tp1223
a(I114
g13
tp1224
a(I115
g13
tp1225
a(I116
g13
tp1226
a(I117
g13
tp1227
a(I118
g13
tp1228
a(I119
g13
tp1229
a(I120
g13
tp1230
a(I121
g13
tp1231
a(I122
g13
tp1232
a(I123
g13
tp1233
a(I124
g13
tp1234
a(I125
g13
tp1235
a(I126
g13
tp1236
a(I127
g13
tp1237
a(I128
g13
tp1238
a(I129
g13
tp1239
a(I130
g13
tp1240
a(I131
g13
tp1241
a(I132
g13
tp1242
a(I133
g13
tp1243
a(I134
g13
tp1244
a(I135
g13
tp1245
a(I136
g13
tp1246
a(I137
g13
tp1247
a(I138
g13
tp1248
a(I139
g13
tp1249
a(I140
g13
tp1250
a(I141
g13
tp1251
a(I142
g13
tp1252
a(I143
g13
tp1253
a(I144
g13
tp1254
a(I145
g13
tp1255
a(I146
g13
tp1256
a(I147
g13
tp1257
a(I148
g13
tp1258
a(I149
g13
tp1259
a(I150
g13
tp1260
a(I151
g13
tp1261
a(I152
g13
tp1262
a(I153
g13
tp1263
a(I154
g13
tp1264
a(I155
g13
tp1265
a(I156
g13
tp1266
a(I157
g13
tp1267
a(I158
g13
tp1268
a(I159
g13
tp1269
a(I160
g13
tp1270
a(I161
g13
tp1271
a(I162
g13
tp1272
a(I163
g13
tp1273
a(I164
g13
tp1274
a(I165
g13
tp1275
a(I166
g13
tp1276
a(I167
g13
tp1277
a(I168
g13
tp1278
a(I169
g13
tp1279
a(I170
g13
tp1280
a(I171
g13
tp1281
a(I172
g13
tp1282
a(I173
g13
tp1283
a(I174
g13
tp1284
a(I175
g13
tp1285
a(I176
g13
tp1286
a(I177
g13
tp1287
a(I178
g13
tp1288
a(I179
g13
tp1289
a(I180
g13
tp1290
a(I181
g13
tp1291
a(I182
g13
tp1292
a(I183
g13
tp1293
a(I184
g13
tp1294
a(I185
g13
tp1295
a(I186
g13
tp1296
a(I187
g13
tp1297
a(I188
g13
tp1298
a(I189
g13
tp1299
a(I190
g13
tp1300
a(I191
g13
tp1301
a(I192
g13
tp1302
a(I193
g13
tp1303
a(I194
g13
tp1304
a(I195
g13
tp1305
a(I196
g13
tp1306
a(I197
g13
tp1307
a(I198
g13
tp1308
a(I199
g13
tp1309
a(I200
g13
tp1310
a(I201
g13
tp1311
a(I202
g13
tp1312
a(I203
g13
tp1313
a(I204
g13
tp1314
a(I205
g13
tp1315
a(I206
g13
tp1316
a(I207
g13
tp1317
a(I208
g13
tp1318
a(I209
g13
tp1319
a(I210
g13
tp1320
a(I211
g13
tp1321
a(I212
g13
tp1322
a(I213
g13
tp1323
a(I214
g13
tp1324
a(I215
g13
tp1325
a(I216
g13
tp1326
a(I217
g13
tp1327
a(I218
g13
tp1328
a(I219
g13
tp1329
a(I220
g13
tp1330
a(I221
g13
tp1331
a(I222
g13
tp1332
a(I223
g13
tp1333
a(I224
g13
tp1334
a(I225
g13
tp1335
a(I226
g13
tp1336
a(I227
g13
tp1337
a(I228
g13
tp1338
a(I229
g13
tp1339
a(I230
g13
tp1340
a(I231
g13
tp1341
a(I232
g13
tp1342
a(I233
g13
tp1343
a(I234
g13
tp1344
a(I235
g13
tp1345
a(I236
g13
tp1346
a(I237
g13
tp1347
a(I238
g13
tp1348
a(I239
g13
tp1349
a(I240
g13
tp1350
a(I241
g13
tp1351
a(I242
g13
tp1352
a(I243
g13
tp1353
a(I244
g13
tp1354
a(I245
g13
tp1355
a(I246
g13
tp1356
a(I247
g13
tp1357
a(I248
g13
tp1358
a(I249
g13
tp1359
a(I250
g13
tp1360
a(I251
g13
tp1361
a(I252
g13
tp1362
a(I253
g13
tp1363
a(I254
g13
tp1364
a(I255
g13
tp1365
a(I256
g13
tp1366
a(I257
g13
tp1367
a(I258
g13
tp1368
a(I259
g13
tp1369
a(I260
g13
tp1370
a(I261
g13
tp1371
a(I262
g13
tp1372
a(I263
g13
tp1373
a(I264
g13
tp1374
a(I265
g13
tp1375
a(I266
g13
tp1376
a(I267
g13
tp1377
a(I268
g13
tp1378
a(I269
g13
tp1379
a(I270
I63
tp1380
a(I271
g13
tp1381
asS'__lineNo__'
p1382
(lp1383
(I0
I1
tp1384
a(I1
I2
tp1385
a(I2
I3
tp1386
a(I3
I4
tp1387
a(I4
I16
tp1388
a(I5
I18
tp1389
a(I6
I21
tp1390
a(I7
I24
tp1391
a(I8
I27
tp1392
a(I9
I31
tp1393
a(I10
I4
tp1394
a(I11
I5
tp1395
a(I12
I6
tp1396
a(I13
I7
tp1397
a(I14
I8
tp1398
a(I15
I9
tp1399
a(I16
I10
tp1400
a(I17
I11
tp1401
a(I18
I12
tp1402
a(I19
I13
tp1403
a(I20
I10
tp1404
a(I21
I11
tp1405
a(I22
I12
tp1406
a(I23
I13
tp1407
a(I24
I10
tp1408
a(I25
I11
tp1409
a(I26
I12
tp1410
a(I27
I13
tp1411
a(I28
I10
tp1412
a(I29
I11
tp1413
a(I30
I12
tp1414
a(I31
I13
tp1415
a(I32
I10
tp1416
a(I33
I11
tp1417
a(I34
I12
tp1418
a(I35
I13
tp1419
a(I36
I10
tp1420
a(I37
I11
tp1421
a(I38
I12
tp1422
a(I39
I13
tp1423
a(I40
I10
tp1424
a(I41
I11
tp1425
a(I42
I12
tp1426
a(I43
I13
tp1427
a(I44
I10
tp1428
a(I45
I11
tp1429
a(I46
I12
tp1430
a(I47
I13
tp1431
a(I48
I10
tp1432
a(I49
I11
tp1433
a(I50
I12
tp1434
a(I51
I13
tp1435
a(I52
I10
tp1436
a(I53
I11
tp1437
a(I54
I12
tp1438
a(I55
I13
tp1439
a(I56
I10
tp1440
a(I57
I11
tp1441
a(I58
I12
tp1442
a(I59
I13
tp1443
a(I60
I10
tp1444
a(I61
I11
tp1445
a(I62
I12
tp1446
a(I63
I13
tp1447
a(I64
I10
tp1448
a(I65
I11
tp1449
a(I66
I12
tp1450
a(I67
I13
tp1451
a(I68
I10
tp1452
a(I69
I11
tp1453
a(I70
I12
tp1454
a(I71
I13
tp1455
a(I72
I10
tp1456
a(I73
I11
tp1457
a(I74
I12
tp1458
a(I75
I13
tp1459
a(I76
I10
tp1460
a(I77
I11
tp1461
a(I78
I12
tp1462
a(I79
I13
tp1463
a(I80
I10
tp1464
a(I81
I11
tp1465
a(I82
I12
tp1466
a(I83
I13
tp1467
a(I84
I10
tp1468
a(I85
I11
tp1469
a(I86
I12
tp1470
a(I87
I13
tp1471
a(I88
I10
tp1472
a(I89
I11
tp1473
a(I90
I12
tp1474
a(I91
I13
tp1475
a(I92
I10
tp1476
a(I93
I11
tp1477
a(I94
I12
tp1478
a(I95
I13
tp1479
a(I96
I10
tp1480
a(I97
I11
tp1481
a(I98
I12
tp1482
a(I99
I13
tp1483
a(I100
I10
tp1484
a(I101
I11
tp1485
a(I102
I12
tp1486
a(I103
I13
tp1487
a(I104
I10
tp1488
a(I105
I11
tp1489
a(I106
I12
tp1490
a(I107
I13
tp1491
a(I108
I10
tp1492
a(I109
I11
tp1493
a(I110
I12
tp1494
a(I111
I13
tp1495
a(I112
I10
tp1496
a(I113
I11
tp1497
a(I114
I12
tp1498
a(I115
I13
tp1499
a(I116
I10
tp1500
a(I117
I11
tp1501
a(I118
I12
tp1502
a(I119
I13
tp1503
a(I120
I10
tp1504
a(I121
I11
tp1505
a(I122
I12
tp1506
a(I123
I13
tp1507
a(I124
I10
tp1508
a(I125
I11
tp1509
a(I126
I12
tp1510
a(I127
I13
tp1511
a(I128
I10
tp1512
a(I129
I11
tp1513
a(I130
I12
tp1514
a(I131
I13
tp1515
a(I132
I10
tp1516
a(I133
I11
tp1517
a(I134
I12
tp1518
a(I135
I13
tp1519
a(I136
I10
tp1520
a(I137
I11
tp1521
a(I138
I12
tp1522
a(I139
I13
tp1523
a(I140
I10
tp1524
a(I141
I11
tp1525
a(I142
I12
tp1526
a(I143
I13
tp1527
a(I144
I10
tp1528
a(I145
I11
tp1529
a(I146
I12
tp1530
a(I147
I13
tp1531
a(I148
I10
tp1532
a(I149
I11
tp1533
a(I150
I12
tp1534
a(I151
I13
tp1535
a(I152
I10
tp1536
a(I153
I11
tp1537
a(I154
I12
tp1538
a(I155
I13
tp1539
a(I156
I10
tp1540
a(I157
I11
tp1541
a(I158
I12
tp1542
a(I159
I13
tp1543
a(I160
I10
tp1544
a(I161
I11
tp1545
a(I162
I12
tp1546
a(I163
I13
tp1547
a(I164
I10
tp1548
a(I165
I11
tp1549
a(I166
I12
tp1550
a(I167
I13
tp1551
a(I168
I10
tp1552
a(I169
I11
tp1553
a(I170
I12
tp1554
a(I171
I13
tp1555
a(I172
I10
tp1556
a(I173
I11
tp1557
a(I174
I12
tp1558
a(I175
I13
tp1559
a(I176
I10
tp1560
a(I177
I11
tp1561
a(I178
I12
tp1562
a(I179
I13
tp1563
a(I180
I10
tp1564
a(I181
I11
tp1565
a(I182
I12
tp1566
a(I183
I13
tp1567
a(I184
I10
tp1568
a(I185
I11
tp1569
a(I186
I12
tp1570
a(I187
I13
tp1571
a(I188
I10
tp1572
a(I189
I11
tp1573
a(I190
I12
tp1574
a(I191
I13
tp1575
a(I192
I10
tp1576
a(I193
I11
tp1577
a(I194
I12
tp1578
a(I195
I13
tp1579
a(I196
I10
tp1580
a(I197
I11
tp1581
a(I198
I12
tp1582
a(I199
I13
tp1583
a(I200
I10
tp1584
a(I201
I11
tp1585
a(I202
I12
tp1586
a(I203
I13
tp1587
a(I204
I10
tp1588
a(I205
I11
tp1589
a(I206
I12
tp1590
a(I207
I13
tp1591
a(I208
I10
tp1592
a(I209
I11
tp1593
a(I210
I12
tp1594
a(I211
I13
tp1595
a(I212
I10
tp1596
a(I213
I11
tp1597
a(I214
I12
tp1598
a(I215
I13
tp1599
a(I216
I10
tp1600
a(I217
I11
tp1601
a(I218
I12
tp1602
a(I219
I13
tp1603
a(I220
I10
tp1604
a(I221
I11
tp1605
a(I222
I12
tp1606
a(I223
I13
tp1607
a(I224
I10
tp1608
a(I225
I11
tp1609
a(I226
I12
tp1610
a(I227
I13
tp1611
a(I228
I10
tp1612
a(I229
I11
tp1613
a(I230
I12
tp1614
a(I231
I13
tp1615
a(I232
I10
tp1616
a(I233
I11
tp1617
a(I234
I12
tp1618
a(I235
I13
tp1619
a(I236
I10
tp1620
a(I237
I11
tp1621
a(I238
I12
tp1622
a(I239
I13
tp1623
a(I240
I10
tp1624
a(I241
I11
tp1625
a(I242
I12
tp1626
a(I243
I13
tp1627
a(I244
I10
tp1628
a(I245
I11
tp1629
a(I246
I12
tp1630
a(I247
I13
tp1631
a(I248
I10
tp1632
a(I249
I11
tp1633
a(I250
I12
tp1634
a(I251
I13
tp1635
a(I252
I10
tp1636
a(I253
I11
tp1637
a(I254
I12
tp1638
a(I255
I13
tp1639
a(I256
I10
tp1640
a(I257
I11
tp1641
a(I258
I12
tp1642
a(I259
I13
tp1643
a(I260
I10
tp1644
a(I261
I11
tp1645
a(I262
I12
tp1646
a(I263
I13
tp1647
a(I264
I10
tp1648
a(I265
I11
tp1649
a(I266
I12
tp1650
a(I267
I13
tp1651
a(I268
I10
tp1652
a(I269
I14
tp1653
a(I270
I14
tp1654
a(I271
I31
tp1655
asS'pop_b'
p1656
(lp1657
(I0
g13
tp1658
a(I1
g13
tp1659
a(I2
g13
tp1660
a(I3
g13
tp1661
a(I4
g13
tp1662
a(I5
g13
tp1663
a(I6
g13
tp1664
a(I7
g13
tp1665
a(I8
g13
tp1666
a(I9
g13
tp1667
a(I10
g13
tp1668
a(I11
g13
tp1669
a(I12
g13
tp1670
a(I13
g13
tp1671
a(I14
I200000
tp1672
a(I15
I200000
tp1673
a(I16
I200000
tp1674
a(I17
I200000
tp1675
a(I18
I200000
tp1676
a(I19
F202999.99999999997
tp1677
a(I20
F202999.99999999997
tp1678
a(I21
F202999.99999999997
tp1679
a(I22
F202999.99999999997
tp1680
a(I23
F206044.99999999994
tp1681
a(I24
F206044.99999999994
tp1682
a(I25
F206044.99999999994
tp1683
a(I26
F206044.99999999994
tp1684
a(I27
F209135.67499999993
tp1685
a(I28
F209135.67499999993
tp1686
a(I29
F209135.67499999993
tp1687
a(I30
F209135.67499999993
tp1688
a(I31
F212272.7101249999
tp1689
a(I32
F212272.7101249999
tp1690
a(I33
F212272.7101249999
tp1691
a(I34
F212272.7101249999
tp1692
a(I35
F215456.80077687488
tp1693
a(I36
F215456.80077687488
tp1694
a(I37
F215456.80077687488
tp1695
a(I38
F215456.80077687488
tp1696
a(I39
F218688.65278852798
tp1697
a(I40
F218688.65278852798
tp1698
a(I41
F218688.65278852798
tp1699
a(I42
F218688.65278852798
tp1700
a(I43
F221968.98258035586
tp1701
a(I44
F221968.98258035586
tp1702
a(I45
F221968.98258035586
tp1703
a(I46
F221968.98258035586
tp1704
a(I47
F225298.51731906118
tp1705
a(I48
F225298.51731906118
tp1706
a(I49
F225298.51731906118
tp1707
a(I50
F225298.51731906118
tp1708
a(I51
F228677.99507884707
tp1709
a(I52
F228677.99507884707
tp1710
a(I53
F228677.99507884707
tp1711
a(I54
F228677.99507884707
tp1712
a(I55
F232108.16500502976
tp1713
a(I56
F232108.16500502976
tp1714
a(I57
F232108.16500502976
tp1715
a(I58
F232108.16500502976
tp1716
a(I59
F235589.78748010518
tp1717
a(I60
F235589.78748010518
tp1718
a(I61
F235589.78748010518
tp1719
a(I62
F235589.78748010518
tp1720
a(I63
F239123.63429230673
tp1721
a(I64
F239123.63429230673
tp1722
a(I65
F239123.63429230673
tp1723
a(I66
F239123.63429230673
tp1724
a(I67
F242710.48880669131
tp1725
a(I68
F242710.48880669131
tp1726
a(I69
F242710.48880669131
tp1727
a(I70
F242710.48880669131
tp1728
a(I71
F246351.14613879166
tp1729
a(I72
F246351.14613879166
tp1730
a(I73
F246351.14613879166
tp1731
a(I74
F246351.14613879166
tp1732
a(I75
F250046.4133308735
tp1733
a(I76
F250046.4133308735
tp1734
a(I77
F250046.4133308735
tp1735
a(I78
F250046.4133308735
tp1736
a(I79
F253797.10953083658
tp1737
a(I80
F253797.10953083658
tp1738
a(I81
F253797.10953083658
tp1739
a(I82
F253797.10953083658
tp1740
a(I83
F257604.0661737991
tp1741
a(I84
F257604.0661737991
tp1742
a(I85
F257604.0661737991
tp1743
a(I86
F257604.0661737991
tp1744
a(I87
F261468.12716640608
tp1745
a(I88
F261468.12716640608
tp1746
a(I89
F261468.12716640608
tp1747
a(I90
F261468.12716640608
tp1748
a(I91
F265390.14907390217
tp1749
a(I92
F265390.14907390217
tp1750
a(I93
F265390.14907390217
tp1751
a(I94
F265390.14907390217
tp1752
a(I95
F269371.00131001067
tp1753
a(I96
F269371.00131001067
tp1754
a(I97
F269371.00131001067
tp1755
a(I98
F269371.00131001067
tp1756
a(I99
F273411.56632966083
tp1757
a(I100
F273411.56632966083
tp1758
a(I101
F273411.56632966083
tp1759
a(I102
F273411.56632966083
tp1760
a(I103
F277512.7398246057
tp1761
a(I104
F277512.7398246057
tp1762
a(I105
F277512.7398246057
tp1763
a(I106
F277512.7398246057
tp1764
a(I107
F281675.43092197477
tp1765
a(I108
F281675.43092197477
tp1766
a(I109
F281675.43092197477
tp1767
a(I110
F281675.43092197477
tp1768
a(I111
F285900.56238580437
tp1769
a(I112
F285900.56238580437
tp1770
a(I113
F285900.56238580437
tp1771
a(I114
F285900.56238580437
tp1772
a(I115
F290189.07082159142
tp1773
a(I116
F290189.07082159142
tp1774
a(I117
F290189.07082159142
tp1775
a(I118
F290189.07082159142
tp1776
a(I119
F294541.90688391525
tp1777
a(I120
F294541.90688391525
tp1778
a(I121
F294541.90688391525
tp1779
a(I122
F294541.90688391525
tp1780
a(I123
F298960.03548717394
tp1781
a(I124
F298960.03548717394
tp1782
a(I125
F298960.03548717394
tp1783
a(I126
F298960.03548717394
tp1784
a(I127
F303444.43601948151
tp1785
a(I128
F303444.43601948151
tp1786
a(I129
F303444.43601948151
tp1787
a(I130
F303444.43601948151
tp1788
a(I131
F307996.10255977372
tp1789
a(I132
F307996.10255977372
tp1790
a(I133
F307996.10255977372
tp1791
a(I134
F307996.10255977372
tp1792
a(I135
F312616.0440981703
tp1793
a(I136
F312616.0440981703
tp1794
a(I137
F312616.0440981703
tp1795
a(I138
F312616.0440981703
tp1796
a(I139
F317305.28475964285
tp1797
a(I140
F317305.28475964285
tp1798
a(I141
F317305.28475964285
tp1799
a(I142
F317305.28475964285
tp1800
a(I143
F322064.86403103743
tp1801
a(I144
F322064.86403103743
tp1802
a(I145
F322064.86403103743
tp1803
a(I146
F322064.86403103743
tp1804
a(I147
F326895.83699150296
tp1805
a(I148
F326895.83699150296
tp1806
a(I149
F326895.83699150296
tp1807
a(I150
F326895.83699150296
tp1808
a(I151
F331799.2745463755
tp1809
a(I152
F331799.2745463755
tp1810
a(I153
F331799.2745463755
tp1811
a(I154
F331799.2745463755
tp1812
a(I155
F336776.2636645711
tp1813
a(I156
F336776.2636645711
tp1814
a(I157
F336776.2636645711
tp1815
a(I158
F336776.2636645711
tp1816
a(I159
F341827.90761953965
tp1817
a(I160
F341827.90761953965
tp1818
a(I161
F341827.90761953965
tp1819
a(I162
F341827.90761953965
tp1820
a(I163
F346955.32623383269
tp1821
a(I164
F346955.32623383269
tp1822
a(I165
F346955.32623383269
tp1823
a(I166
F346955.32623383269
tp1824
a(I167
F352159.65612734016
tp1825
a(I168
F352159.65612734016
tp1826
a(I169
F352159.65612734016
tp1827
a(I170
F352159.65612734016
tp1828
a(I171
F357442.05096925021
tp1829
a(I172
F357442.05096925021
tp1830
a(I173
F357442.05096925021
tp1831
a(I174
F357442.05096925021
tp1832
a(I175
F362803.68173378892
tp1833
a(I176
F362803.68173378892
tp1834
a(I177
F362803.68173378892
tp1835
a(I178
F362803.68173378892
tp1836
a(I179
F368245.7369597957
tp1837
a(I180
F368245.7369597957
tp1838
a(I181
F368245.7369597957
tp1839
a(I182
F368245.7369597957
tp1840
a(I183
F373769.42301419261
tp1841
a(I184
F373769.42301419261
tp1842
a(I185
F373769.42301419261
tp1843
a(I186
F373769.42301419261
tp1844
a(I187
F379375.96435940545
tp1845
a(I188
F379375.96435940545
tp1846
a(I189
F379375.96435940545
tp1847
a(I190
F379375.96435940545
tp1848
a(I191
F385066.6038247965
tp1849
a(I192
F385066.6038247965
tp1850
a(I193
F385066.6038247965
tp1851
a(I194
F385066.6038247965
tp1852
a(I195
F390842.60288216843
tp1853
a(I196
F390842.60288216843
tp1854
a(I197
F390842.60288216843
tp1855
a(I198
F390842.60288216843
tp1856
a(I199
F396705.24192540091
tp1857
a(I200
F396705.24192540091
tp1858
a(I201
F396705.24192540091
tp1859
a(I202
F396705.24192540091
tp1860
a(I203
F402655.82055428188
tp1861
a(I204
F402655.82055428188
tp1862
a(I205
F402655.82055428188
tp1863
a(I206
F402655.82055428188
tp1864
a(I207
F408695.65786259604
tp1865
a(I208
F408695.65786259604
tp1866
a(I209
F408695.65786259604
tp1867
a(I210
F408695.65786259604
tp1868
a(I211
F414826.09273053496
tp1869
a(I212
F414826.09273053496
tp1870
a(I213
F414826.09273053496
tp1871
a(I214
F414826.09273053496
tp1872
a(I215
F421048.48412149295
tp1873
a(I216
F421048.48412149295
tp1874
a(I217
F421048.48412149295
tp1875
a(I218
F421048.48412149295
tp1876
a(I219
F427364.21138331533
tp1877
a(I220
F427364.21138331533
tp1878
a(I221
F427364.21138331533
tp1879
a(I222
F427364.21138331533
tp1880
a(I223
F433774.67455406499
tp1881
a(I224
F433774.67455406499
tp1882
a(I225
F433774.67455406499
tp1883
a(I226
F433774.67455406499
tp1884
a(I227
F440281.29467237589
tp1885
a(I228
F440281.29467237589
tp1886
a(I229
F440281.29467237589
tp1887
a(I230
F440281.29467237589
tp1888
a(I231
F446885.5140924615
tp1889
a(I232
F446885.5140924615
tp1890
a(I233
F446885.5140924615
tp1891
a(I234
F446885.5140924615
tp1892
a(I235
F453588.79680384835
tp1893
a(I236
F453588.79680384835
tp1894
a(I237
F453588.79680384835
tp1895
a(I238
F453588.79680384835
tp1896
a(I239
F460392.62875590601
tp1897
a(I240
F460392.62875590601
tp1898
a(I241
F460392.62875590601
tp1899
a(I242
F460392.62875590601
tp1900
a(I243
F467298.51818724454
tp1901
a(I244
F467298.51818724454
tp1902
a(I245
F467298.51818724454
tp1903
a(I246
F467298.51818724454
tp1904
a(I247
F474307.99596005317
tp1905
a(I248
F474307.99596005317
tp1906
a(I249
F474307.99596005317
tp1907
a(I250
F474307.99596005317
tp1908
a(I251
F481422.61589945393
tp1909
a(I252
F481422.61589945393
tp1910
a(I253
F481422.61589945393
tp1911
a(I254
F481422.61589945393
tp1912
a(I255
F488643.95513794571
tp1913
a(I256
F488643.95513794571
tp1914
a(I257
F488643.95513794571
tp1915
a(I258
F488643.95513794571
tp1916
a(I259
F495973.61446501483
tp1917
a(I260
F495973.61446501483
tp1918
a(I261
F495973.61446501483
tp1919
a(I262
F495973.61446501483
tp1920
a(I263
F503413.21868198999
tp1921
a(I264
F503413.21868198999
tp1922
a(I265
F503413.21868198999
tp1923
a(I266
F503413.21868198999
tp1924
a(I267
F510964.41696221981
tp1925
a(I268
F510964.41696221981
tp1926
a(I269
F510964.41696221981
tp1927
a(I270
F510964.41696221981
tp1928
a(I271
g13
tp1929
asas.