(dp1
S'outputs'
p2
(lp3
V63\u000a
p4
asS'testcases'
p5
(lp6
S'print breakeven()'
p7
asS'traces'
p8
(lp9
(dp10
S'population_a'
p11
(lp12
(I0
S'myNaN'
p13
tp14
a(I1
g13
tp15
a(I2
g13
tp16
a(I3
g13
tp17
a(I4
g13
tp18
a(I5
g13
tp19
a(I6
g13
tp20
a(I7
g13
tp21
a(I8
g13
tp22
a(I9
g13
tp23
a(I10
g13
tp24
a(I11
g13
tp25
a(I12
g13
tp26
a(I13
I80000
tp27
a(I14
I80000
tp28
a(I15
I80000
tp29
a(I16
I80000
tp30
a(I17
I80000
tp31
a(I18
F82400
tp32
a(I19
F82400
tp33
a(I20
F82400
tp34
a(I21
F82400
tp35
a(I22
F84872
tp36
a(I23
F84872
tp37
a(I24
F84872
tp38
a(I25
F84872
tp39
a(I26
F87418.160000000003
tp40
a(I27
F87418.160000000003
tp41
a(I28
F87418.160000000003
tp42
a(I29
F87418.160000000003
tp43
a(I30
F90040.704800000007
tp44
a(I31
F90040.704800000007
tp45
a(I32
F90040.704800000007
tp46
a(I33
F90040.704800000007
tp47
a(I34
F92741.925944000002
tp48
a(I35
F92741.925944000002
tp49
a(I36
F92741.925944000002
tp50
a(I37
F92741.925944000002
tp51
a(I38
F95524.183722319998
tp52
a(I39
F95524.183722319998
tp53
a(I40
F95524.183722319998
tp54
a(I41
F95524.183722319998
tp55
a(I42
F98389.909233989601
tp56
a(I43
F98389.909233989601
tp57
a(I44
F98389.909233989601
tp58
a(I45
F98389.909233989601
tp59
a(I46
F101341.60651100929
tp60
a(I47
F101341.60651100929
tp61
a(I48
F101341.60651100929
tp62
a(I49
F101341.60651100929
tp63
a(I50
F104381.85470633957
tp64
a(I51
F104381.85470633957
tp65
a(I52
F104381.85470633957
tp66
a(I53
F104381.85470633957
tp67
a(I54
F107513.31034752975
tp68
a(I55
F107513.31034752975
tp69
a(I56
F107513.31034752975
tp70
a(I57
F107513.31034752975
tp71
a(I58
F110738.70965795565
tp72
a(I59
F110738.70965795565
tp73
a(I60
F110738.70965795565
tp74
a(I61
F110738.70965795565
tp75
a(I62
F114060.87094769432
tp76
a(I63
F114060.87094769432
tp77
a(I64
F114060.87094769432
tp78
a(I65
F114060.87094769432
tp79
a(I66
F117482.69707612514
tp80
a(I67
F117482.69707612514
tp81
a(I68
F117482.69707612514
tp82
a(I69
F117482.69707612514
tp83
a(I70
F121007.17798840889
tp84
a(I71
F121007.17798840889
tp85
a(I72
F121007.17798840889
tp86
a(I73
F121007.17798840889
tp87
a(I74
F124637.39332806115
tp88
a(I75
F124637.39332806115
tp89
a(I76
F124637.39332806115
tp90
a(I77
F124637.39332806115
tp91
a(I78
F128376.51512790298
tp92
a(I79
F128376.51512790298
tp93
a(I80
F128376.51512790298
tp94
a(I81
F128376.51512790298
tp95
a(I82
F132227.81058174008
tp96
a(I83
F132227.81058174008
tp97
a(I84
F132227.81058174008
tp98
a(I85
F132227.81058174008
tp99
a(I86
F136194.6448991923
tp100
a(I87
F136194.6448991923
tp101
a(I88
F136194.6448991923
tp102
a(I89
F136194.6448991923
tp103
a(I90
F140280.48424616805
tp104
a(I91
F140280.48424616805
tp105
a(I92
F140280.48424616805
tp106
a(I93
F140280.48424616805
tp107
a(I94
F144488.89877355308
tp108
a(I95
F144488.89877355308
tp109
a(I96
F144488.89877355308
tp110
a(I97
F144488.89877355308
tp111
a(I98
F148823.56573675969
tp112
a(I99
F148823.56573675969
tp113
a(I100
F148823.56573675969
tp114
a(I101
F148823.56573675969
tp115
a(I102
F153288.27270886247
tp116
a(I103
F153288.27270886247
tp117
a(I104
F153288.27270886247
tp118
a(I105
F153288.27270886247
tp119
a(I106
F157886.92089012833
tp120
a(I107
F157886.92089012833
tp121
a(I108
F157886.92089012833
tp122
a(I109
F157886.92089012833
tp123
a(I110
F162623.52851683219
tp124
a(I111
F162623.52851683219
tp125
a(I112
F162623.52851683219
tp126
a(I113
F162623.52851683219
tp127
a(I114
F167502.23437233715
tp128
a(I115
F167502.23437233715
tp129
a(I116
F167502.23437233715
tp130
a(I117
F167502.23437233715
tp131
a(I118
F172527.30140350727
tp132
a(I119
F172527.30140350727
tp133
a(I120
F172527.30140350727
tp134
a(I121
F172527.30140350727
tp135
a(I122
F177703.1204456125
tp136
a(I123
F177703.1204456125
tp137
a(I124
F177703.1204456125
tp138
a(I125
F177703.1204456125
tp139
a(I126
F183034.21405898087
tp140
a(I127
F183034.21405898087
tp141
a(I128
F183034.21405898087
tp142
a(I129
F183034.21405898087
tp143
a(I130
F188525.2404807503
tp144
a(I131
F188525.2404807503
tp145
a(I132
F188525.2404807503
tp146
a(I133
F188525.2404807503
tp147
a(I134
F194180.99769517282
tp148
a(I135
F194180.99769517282
tp149
a(I136
F194180.99769517282
tp150
a(I137
F194180.99769517282
tp151
a(I138
F200006.42762602799
tp152
a(I139
F200006.42762602799
tp153
a(I140
F200006.42762602799
tp154
a(I141
F200006.42762602799
tp155
a(I142
F206006.62045480881
tp156
a(I143
F206006.62045480881
tp157
a(I144
F206006.62045480881
tp158
a(I145
F206006.62045480881
tp159
a(I146
F212186.81906845307
tp160
a(I147
F212186.81906845307
tp161
a(I148
F212186.81906845307
tp162
a(I149
F212186.81906845307
tp163
a(I150
F218552.42364050666
tp164
a(I151
F218552.42364050666
tp165
a(I152
F218552.42364050666
tp166
a(I153
F218552.42364050666
tp167
a(I154
F225108.99634972186
tp168
a(I155
F225108.99634972186
tp169
a(I156
F225108.99634972186
tp170
a(I157
F225108.99634972186
tp171
a(I158
F231862.2662402135
tp172
a(I159
F231862.2662402135
tp173
a(I160
F231862.2662402135
tp174
a(I161
F231862.2662402135
tp175
a(I162
F238818.13422741991
tp176
a(I163
F238818.13422741991
tp177
a(I164
F238818.13422741991
tp178
a(I165
F238818.13422741991
tp179
a(I166
F245982.67825424252
tp180
a(I167
F245982.67825424252
tp181
a(I168
F245982.67825424252
tp182
a(I169
F245982.67825424252
tp183
a(I170
F253362.1586018698
tp184
a(I171
F253362.1586018698
tp185
a(I172
F253362.1586018698
tp186
a(I173
F253362.1586018698
tp187
a(I174
F260963.02335992589
tp188
a(I175
F260963.02335992589
tp189
a(I176
F260963.02335992589
tp190
a(I177
F260963.02335992589
tp191
a(I178
F268791.91406072368
tp192
a(I179
F268791.91406072368
tp193
a(I180
F268791.91406072368
tp194
a(I181
F268791.91406072368
tp195
a(I182
F276855.67148254538
tp196
a(I183
F276855.67148254538
tp197
a(I184
F276855.67148254538
tp198
a(I185
F276855.67148254538
tp199
a(I186
F285161.34162702173
tp200
a(I187
F285161.34162702173
tp201
a(I188
F285161.34162702173
tp202
a(I189
F285161.34162702173
tp203
a(I190
F293716.18187583238
tp204
a(I191
F293716.18187583238
tp205
a(I192
F293716.18187583238
tp206
a(I193
F293716.18187583238
tp207
a(I194
F302527.66733210738
tp208
a(I195
F302527.66733210738
tp209
a(I196
F302527.66733210738
tp210
a(I197
F302527.66733210738
tp211
a(I198
F311603.49735207058
tp212
a(I199
F311603.49735207058
tp213
a(I200
F311603.49735207058
tp214
a(I201
F311603.49735207058
tp215
a(I202
F320951.60227263271
tp216
a(I203
F320951.60227263271
tp217
a(I204
F320951.60227263271
tp218
a(I205
F320951.60227263271
tp219
a(I206
F330580.1503408117
tp220
a(I207
F330580.1503408117
tp221
a(I208
F330580.1503408117
tp222
a(I209
F330580.1503408117
tp223
a(I210
F340497.55485103605
tp224
a(I211
F340497.55485103605
tp225
a(I212
F340497.55485103605
tp226
a(I213
F340497.55485103605
tp227
a(I214
F350712.48149656714
tp228
a(I215
F350712.48149656714
tp229
a(I216
F350712.48149656714
tp230
a(I217
F350712.48149656714
tp231
a(I218
F361233.85594146413
tp232
a(I219
F361233.85594146413
tp233
a(I220
F361233.85594146413
tp234
a(I221
F361233.85594146413
tp235
a(I222
F372070.87161970808
tp236
a(I223
F372070.87161970808
tp237
a(I224
F372070.87161970808
tp238
a(I225
F372070.87161970808
tp239
a(I226
F383232.9977682993
tp240
a(I227
F383232.9977682993
tp241
a(I228
F383232.9977682993
tp242
a(I229
F383232.9977682993
tp243
a(I230
F394729.98770134826
tp244
a(I231
F394729.98770134826
tp245
a(I232
F394729.98770134826
tp246
a(I233
F394729.98770134826
tp247
a(I234
F406571.88733238872
tp248
a(I235
F406571.88733238872
tp249
a(I236
F406571.88733238872
tp250
a(I237
F406571.88733238872
tp251
a(I238
F418769.0439523604
tp252
a(I239
F418769.0439523604
tp253
a(I240
F418769.0439523604
tp254
a(I241
F418769.0439523604
tp255
a(I242
F431332.11527093122
tp256
a(I243
F431332.11527093122
tp257
a(I244
F431332.11527093122
tp258
a(I245
F431332.11527093122
tp259
a(I246
F444272.07872905914
tp260
a(I247
F444272.07872905914
tp261
a(I248
F444272.07872905914
tp262
a(I249
F444272.07872905914
tp263
a(I250
F457600.24109093094
tp264
a(I251
F457600.24109093094
tp265
a(I252
F457600.24109093094
tp266
a(I253
F457600.24109093094
tp267
a(I254
F471328.24832365889
tp268
a(I255
F471328.24832365889
tp269
a(I256
F471328.24832365889
tp270
a(I257
F471328.24832365889
tp271
a(I258
F485468.09577336867
tp272
a(I259
F485468.09577336867
tp273
a(I260
F485468.09577336867
tp274
a(I261
F485468.09577336867
tp275
a(I262
F500032.13864656974
tp276
a(I263
F500032.13864656974
tp277
a(I264
F500032.13864656974
tp278
a(I265
F500032.13864656974
tp279
a(I266
F515033.10280596686
tp280
a(I267
F515033.10280596686
tp281
a(I268
F515033.10280596686
tp282
a(I269
F515033.10280596686
tp283
a(I270
F515033.10280596686
tp284
a(I271
g13
tp285
asS'population_b'
p286
(lp287
(I0
g13
tp288
a(I1
g13
tp289
a(I2
g13
tp290
a(I3
g13
tp291
a(I4
g13
tp292
a(I5
g13
tp293
a(I6
g13
tp294
a(I7
g13
tp295
a(I8
g13
tp296
a(I9
g13
tp297
a(I10
g13
tp298
a(I11
g13
tp299
a(I12
g13
tp300
a(I13
g13
tp301
a(I14
I200000
tp302
a(I15
I200000
tp303
a(I16
I200000
tp304
a(I17
I200000
tp305
a(I18
I200000
tp306
a(I19
F203000
tp307
a(I20
F203000
tp308
a(I21
F203000
tp309
a(I22
F203000
tp310
a(I23
F206045
tp311
a(I24
F206045
tp312
a(I25
F206045
tp313
a(I26
F206045
tp314
a(I27
F209135.67499999999
tp315
a(I28
F209135.67499999999
tp316
a(I29
F209135.67499999999
tp317
a(I30
F209135.67499999999
tp318
a(I31
F212272.71012499998
tp319
a(I32
F212272.71012499998
tp320
a(I33
F212272.71012499998
tp321
a(I34
F212272.71012499998
tp322
a(I35
F215456.800776875
tp323
a(I36
F215456.800776875
tp324
a(I37
F215456.800776875
tp325
a(I38
F215456.800776875
tp326
a(I39
F218688.65278852812
tp327
a(I40
F218688.65278852812
tp328
a(I41
F218688.65278852812
tp329
a(I42
F218688.65278852812
tp330
a(I43
F221968.98258035604
tp331
a(I44
F221968.98258035604
tp332
a(I45
F221968.98258035604
tp333
a(I46
F221968.98258035604
tp334
a(I47
F225298.51731906139
tp335
a(I48
F225298.51731906139
tp336
a(I49
F225298.51731906139
tp337
a(I50
F225298.51731906139
tp338
a(I51
F228677.99507884731
tp339
a(I52
F228677.99507884731
tp340
a(I53
F228677.99507884731
tp341
a(I54
F228677.99507884731
tp342
a(I55
F232108.16500503002
tp343
a(I56
F232108.16500503002
tp344
a(I57
F232108.16500503002
tp345
a(I58
F232108.16500503002
tp346
a(I59
F235589.78748010547
tp347
a(I60
F235589.78748010547
tp348
a(I61
F235589.78748010547
tp349
a(I62
F235589.78748010547
tp350
a(I63
F239123.63429230705
tp351
a(I64
F239123.63429230705
tp352
a(I65
F239123.63429230705
tp353
a(I66
F239123.63429230705
tp354
a(I67
F242710.48880669166
tp355
a(I68
F242710.48880669166
tp356
a(I69
F242710.48880669166
tp357
a(I70
F242710.48880669166
tp358
a(I71
F246351.14613879204
tp359
a(I72
F246351.14613879204
tp360
a(I73
F246351.14613879204
tp361
a(I74
F246351.14613879204
tp362
a(I75
F250046.41333087391
tp363
a(I76
F250046.41333087391
tp364
a(I77
F250046.41333087391
tp365
a(I78
F250046.41333087391
tp366
a(I79
F253797.10953083701
tp367
a(I80
F253797.10953083701
tp368
a(I81
F253797.10953083701
tp369
a(I82
F253797.10953083701
tp370
a(I83
F257604.06617379957
tp371
a(I84
F257604.06617379957
tp372
a(I85
F257604.06617379957
tp373
a(I86
F257604.06617379957
tp374
a(I87
F261468.12716640657
tp375
a(I88
F261468.12716640657
tp376
a(I89
F261468.12716640657
tp377
a(I90
F261468.12716640657
tp378
a(I91
F265390.14907390269
tp379
a(I92
F265390.14907390269
tp380
a(I93
F265390.14907390269
tp381
a(I94
F265390.14907390269
tp382
a(I95
F269371.00131001126
tp383
a(I96
F269371.00131001126
tp384
a(I97
F269371.00131001126
tp385
a(I98
F269371.00131001126
tp386
a(I99
F273411.56632966141
tp387
a(I100
F273411.56632966141
tp388
a(I101
F273411.56632966141
tp389
a(I102
F273411.56632966141
tp390
a(I103
F277512.73982460634
tp391
a(I104
F277512.73982460634
tp392
a(I105
F277512.73982460634
tp393
a(I106
F277512.73982460634
tp394
a(I107
F281675.43092197541
tp395
a(I108
F281675.43092197541
tp396
a(I109
F281675.43092197541
tp397
a(I110
F281675.43092197541
tp398
a(I111
F285900.56238580501
tp399
a(I112
F285900.56238580501
tp400
a(I113
F285900.56238580501
tp401
a(I114
F285900.56238580501
tp402
a(I115
F290189.07082159206
tp403
a(I116
F290189.07082159206
tp404
a(I117
F290189.07082159206
tp405
a(I118
F290189.07082159206
tp406
a(I119
F294541.90688391594
tp407
a(I120
F294541.90688391594
tp408
a(I121
F294541.90688391594
tp409
a(I122
F294541.90688391594
tp410
a(I123
F298960.0354871747
tp411
a(I124
F298960.0354871747
tp412
a(I125
F298960.0354871747
tp413
a(I126
F298960.0354871747
tp414
a(I127
F303444.43601948232
tp415
a(I128
F303444.43601948232
tp416
a(I129
F303444.43601948232
tp417
a(I130
F303444.43601948232
tp418
a(I131
F307996.10255977453
tp419
a(I132
F307996.10255977453
tp420
a(I133
F307996.10255977453
tp421
a(I134
F307996.10255977453
tp422
a(I135
F312616.04409817117
tp423
a(I136
F312616.04409817117
tp424
a(I137
F312616.04409817117
tp425
a(I138
F312616.04409817117
tp426
a(I139
F317305.28475964372
tp427
a(I140
F317305.28475964372
tp428
a(I141
F317305.28475964372
tp429
a(I142
F317305.28475964372
tp430
a(I143
F322064.86403103836
tp431
a(I144
F322064.86403103836
tp432
a(I145
F322064.86403103836
tp433
a(I146
F322064.86403103836
tp434
a(I147
F326895.83699150395
tp435
a(I148
F326895.83699150395
tp436
a(I149
F326895.83699150395
tp437
a(I150
F326895.83699150395
tp438
a(I151
F331799.27454637649
tp439
a(I152
F331799.27454637649
tp440
a(I153
F331799.27454637649
tp441
a(I154
F331799.27454637649
tp442
a(I155
F336776.26366457215
tp443
a(I156
F336776.26366457215
tp444
a(I157
F336776.26366457215
tp445
a(I158
F336776.26366457215
tp446
a(I159
F341827.90761954075
tp447
a(I160
F341827.90761954075
tp448
a(I161
F341827.90761954075
tp449
a(I162
F341827.90761954075
tp450
a(I163
F346955.32623383385
tp451
a(I164
F346955.32623383385
tp452
a(I165
F346955.32623383385
tp453
a(I166
F346955.32623383385
tp454
a(I167
F352159.65612734138
tp455
a(I168
F352159.65612734138
tp456
a(I169
F352159.65612734138
tp457
a(I170
F352159.65612734138
tp458
a(I171
F357442.05096925149
tp459
a(I172
F357442.05096925149
tp460
a(I173
F357442.05096925149
tp461
a(I174
F357442.05096925149
tp462
a(I175
F362803.68173379026
tp463
a(I176
F362803.68173379026
tp464
a(I177
F362803.68173379026
tp465
a(I178
F362803.68173379026
tp466
a(I179
F368245.7369597971
tp467
a(I180
F368245.7369597971
tp468
a(I181
F368245.7369597971
tp469
a(I182
F368245.7369597971
tp470
a(I183
F373769.42301419406
tp471
a(I184
F373769.42301419406
tp472
a(I185
F373769.42301419406
tp473
a(I186
F373769.42301419406
tp474
a(I187
F379375.96435940696
tp475
a(I188
F379375.96435940696
tp476
a(I189
F379375.96435940696
tp477
a(I190
F379375.96435940696
tp478
a(I191
F385066.60382479808
tp479
a(I192
F385066.60382479808
tp480
a(I193
F385066.60382479808
tp481
a(I194
F385066.60382479808
tp482
a(I195
F390842.60288217006
tp483
a(I196
F390842.60288217006
tp484
a(I197
F390842.60288217006
tp485
a(I198
F390842.60288217006
tp486
a(I199
F396705.2419254026
tp487
a(I200
F396705.2419254026
tp488
a(I201
F396705.2419254026
tp489
a(I202
F396705.2419254026
tp490
a(I203
F402655.82055428362
tp491
a(I204
F402655.82055428362
tp492
a(I205
F402655.82055428362
tp493
a(I206
F402655.82055428362
tp494
a(I207
F408695.6578625979
tp495
a(I208
F408695.6578625979
tp496
a(I209
F408695.6578625979
tp497
a(I210
F408695.6578625979
tp498
a(I211
F414826.09273053688
tp499
a(I212
F414826.09273053688
tp500
a(I213
F414826.09273053688
tp501
a(I214
F414826.09273053688
tp502
a(I215
F421048.48412149493
tp503
a(I216
F421048.48412149493
tp504
a(I217
F421048.48412149493
tp505
a(I218
F421048.48412149493
tp506
a(I219
F427364.21138331736
tp507
a(I220
F427364.21138331736
tp508
a(I221
F427364.21138331736
tp509
a(I222
F427364.21138331736
tp510
a(I223
F433774.67455406714
tp511
a(I224
F433774.67455406714
tp512
a(I225
F433774.67455406714
tp513
a(I226
F433774.67455406714
tp514
a(I227
F440281.29467237816
tp515
a(I228
F440281.29467237816
tp516
a(I229
F440281.29467237816
tp517
a(I230
F440281.29467237816
tp518
a(I231
F446885.51409246383
tp519
a(I232
F446885.51409246383
tp520
a(I233
F446885.51409246383
tp521
a(I234
F446885.51409246383
tp522
a(I235
F453588.7968038508
tp523
a(I236
F453588.7968038508
tp524
a(I237
F453588.7968038508
tp525
a(I238
F453588.7968038508
tp526
a(I239
F460392.62875590858
tp527
a(I240
F460392.62875590858
tp528
a(I241
F460392.62875590858
tp529
a(I242
F460392.62875590858
tp530
a(I243
F467298.51818724722
tp531
a(I244
F467298.51818724722
tp532
a(I245
F467298.51818724722
tp533
a(I246
F467298.51818724722
tp534
a(I247
F474307.99596005591
tp535
a(I248
F474307.99596005591
tp536
a(I249
F474307.99596005591
tp537
a(I250
F474307.99596005591
tp538
a(I251
F481422.61589945672
tp539
a(I252
F481422.61589945672
tp540
a(I253
F481422.61589945672
tp541
a(I254
F481422.61589945672
tp542
a(I255
F488643.95513794856
tp543
a(I256
F488643.95513794856
tp544
a(I257
F488643.95513794856
tp545
a(I258
F488643.95513794856
tp546
a(I259
F495973.6144650178
tp547
a(I260
F495973.6144650178
tp548
a(I261
F495973.6144650178
tp549
a(I262
F495973.6144650178
tp550
a(I263
F503413.21868199308
tp551
a(I264
F503413.21868199308
tp552
a(I265
F503413.21868199308
tp553
a(I266
F503413.21868199308
tp554
a(I267
F510964.41696222295
tp555
a(I268
F510964.41696222295
tp556
a(I269
F510964.41696222295
tp557
a(I270
F510964.41696222295
tp558
a(I271
g13
tp559
asS'years'
p560
(lp561
(I0
g13
tp562
a(I1
g13
tp563
a(I2
g13
tp564
a(I3
g13
tp565
a(I4
g13
tp566
a(I5
g13
tp567
a(I6
g13
tp568
a(I7
g13
tp569
a(I8
g13
tp570
a(I9
g13
tp571
a(I10
g13
tp572
a(I11
g13
tp573
a(I12
I0
tp574
a(I13
I0
tp575
a(I14
I0
tp576
a(I15
I0
tp577
a(I16
I0
tp578
a(I17
I0
tp579
a(I18
I0
tp580
a(I19
I0
tp581
a(I20
I1
tp582
a(I21
I1
tp583
a(I22
I1
tp584
a(I23
I1
tp585
a(I24
I2
tp586
a(I25
I2
tp587
a(I26
I2
tp588
a(I27
I2
tp589
a(I28
I3
tp590
a(I29
I3
tp591
a(I30
I3
tp592
a(I31
I3
tp593
a(I32
I4
tp594
a(I33
I4
tp595
a(I34
I4
tp596
a(I35
I4
tp597
a(I36
I5
tp598
a(I37
I5
tp599
a(I38
I5
tp600
a(I39
I5
tp601
a(I40
I6
tp602
a(I41
I6
tp603
a(I42
I6
tp604
a(I43
I6
tp605
a(I44
I7
tp606
a(I45
I7
tp607
a(I46
I7
tp608
a(I47
I7
tp609
a(I48
I8
tp610
a(I49
I8
tp611
a(I50
I8
tp612
a(I51
I8
tp613
a(I52
I9
tp614
a(I53
I9
tp615
a(I54
I9
tp616
a(I55
I9
tp617
a(I56
I10
tp618
a(I57
I10
tp619
a(I58
I10
tp620
a(I59
I10
tp621
a(I60
I11
tp622
a(I61
I11
tp623
a(I62
I11
tp624
a(I63
I11
tp625
a(I64
I12
tp626
a(I65
I12
tp627
a(I66
I12
tp628
a(I67
I12
tp629
a(I68
I13
tp630
a(I69
I13
tp631
a(I70
I13
tp632
a(I71
I13
tp633
a(I72
I14
tp634
a(I73
I14
tp635
a(I74
I14
tp636
a(I75
I14
tp637
a(I76
I15
tp638
a(I77
I15
tp639
a(I78
I15
tp640
a(I79
I15
tp641
a(I80
I16
tp642
a(I81
I16
tp643
a(I82
I16
tp644
a(I83
I16
tp645
a(I84
I17
tp646
a(I85
I17
tp647
a(I86
I17
tp648
a(I87
I17
tp649
a(I88
I18
tp650
a(I89
I18
tp651
a(I90
I18
tp652
a(I91
I18
tp653
a(I92
I19
tp654
a(I93
I19
tp655
a(I94
I19
tp656
a(I95
I19
tp657
a(I96
I20
tp658
a(I97
I20
tp659
a(I98
I20
tp660
a(I99
I20
tp661
a(I100
I21
tp662
a(I101
I21
tp663
a(I102
I21
tp664
a(I103
I21
tp665
a(I104
I22
tp666
a(I105
I22
tp667
a(I106
I22
tp668
a(I107
I22
tp669
a(I108
I23
tp670
a(I109
I23
tp671
a(I110
I23
tp672
a(I111
I23
tp673
a(I112
I24
tp674
a(I113
I24
tp675
a(I114
I24
tp676
a(I115
I24
tp677
a(I116
I25
tp678
a(I117
I25
tp679
a(I118
I25
tp680
a(I119
I25
tp681
a(I120
I26
tp682
a(I121
I26
tp683
a(I122
I26
tp684
a(I123
I26
tp685
a(I124
I27
tp686
a(I125
I27
tp687
a(I126
I27
tp688
a(I127
I27
tp689
a(I128
I28
tp690
a(I129
I28
tp691
a(I130
I28
tp692
a(I131
I28
tp693
a(I132
I29
tp694
a(I133
I29
tp695
a(I134
I29
tp696
a(I135
I29
tp697
a(I136
I30
tp698
a(I137
I30
tp699
a(I138
I30
tp700
a(I139
I30
tp701
a(I140
I31
tp702
a(I141
I31
tp703
a(I142
I31
tp704
a(I143
I31
tp705
a(I144
I32
tp706
a(I145
I32
tp707
a(I146
I32
tp708
a(I147
I32
tp709
a(I148
I33
tp710
a(I149
I33
tp711
a(I150
I33
tp712
a(I151
I33
tp713
a(I152
I34
tp714
a(I153
I34
tp715
a(I154
I34
tp716
a(I155
I34
tp717
a(I156
I35
tp718
a(I157
I35
tp719
a(I158
I35
tp720
a(I159
I35
tp721
a(I160
I36
tp722
a(I161
I36
tp723
a(I162
I36
tp724
a(I163
I36
tp725
a(I164
I37
tp726
a(I165
I37
tp727
a(I166
I37
tp728
a(I167
I37
tp729
a(I168
I38
tp730
a(I169
I38
tp731
a(I170
I38
tp732
a(I171
I38
tp733
a(I172
I39
tp734
a(I173
I39
tp735
a(I174
I39
tp736
a(I175
I39
tp737
a(I176
I40
tp738
a(I177
I40
tp739
a(I178
I40
tp740
a(I179
I40
tp741
a(I180
I41
tp742
a(I181
I41
tp743
a(I182
I41
tp744
a(I183
I41
tp745
a(I184
I42
tp746
a(I185
I42
tp747
a(I186
I42
tp748
a(I187
I42
tp749
a(I188
I43
tp750
a(I189
I43
tp751
a(I190
I43
tp752
a(I191
I43
tp753
a(I192
I44
tp754
a(I193
I44
tp755
a(I194
I44
tp756
a(I195
I44
tp757
a(I196
I45
tp758
a(I197
I45
tp759
a(I198
I45
tp760
a(I199
I45
tp761
a(I200
I46
tp762
a(I201
I46
tp763
a(I202
I46
tp764
a(I203
I46
tp765
a(I204
I47
tp766
a(I205
I47
tp767
a(I206
I47
tp768
a(I207
I47
tp769
a(I208
I48
tp770
a(I209
I48
tp771
a(I210
I48
tp772
a(I211
I48
tp773
a(I212
I49
tp774
a(I213
I49
tp775
a(I214
I49
tp776
a(I215
I49
tp777
a(I216
I50
tp778
a(I217
I50
tp779
a(I218
I50
tp780
a(I219
I50
tp781
a(I220
I51
tp782
a(I221
I51
tp783
a(I222
I51
tp784
a(I223
I51
tp785
a(I224
I52
tp786
a(I225
I52
tp787
a(I226
I52
tp788
a(I227
I52
tp789
a(I228
I53
tp790
a(I229
I53
tp791
a(I230
I53
tp792
a(I231
I53
tp793
a(I232
I54
tp794
a(I233
I54
tp795
a(I234
I54
tp796
a(I235
I54
tp797
a(I236
I55
tp798
a(I237
I55
tp799
a(I238
I55
tp800
a(I239
I55
tp801
a(I240
I56
tp802
a(I241
I56
tp803
a(I242
I56
tp804
a(I243
I56
tp805
a(I244
I57
tp806
a(I245
I57
tp807
a(I246
I57
tp808
a(I247
I57
tp809
a(I248
I58
tp810
a(I249
I58
tp811
a(I250
I58
tp812
a(I251
I58
tp813
a(I252
I59
tp814
a(I253
I59
tp815
a(I254
I59
tp816
a(I255
I59
tp817
a(I256
I60
tp818
a(I257
I60
tp819
a(I258
I60
tp820
a(I259
I60
tp821
a(I260
I61
tp822
a(I261
I61
tp823
a(I262
I61
tp824
a(I263
I61
tp825
a(I264
I62
tp826
a(I265
I62
tp827
a(I266
I62
tp828
a(I267
I62
tp829
a(I268
I63
tp830
a(I269
I63
tp831
a(I270
I63
tp832
a(I271
g13
tp833
asS'rate_a'
p834
(lp835
(I0
g13
tp836
a(I1
g13
tp837
a(I2
g13
tp838
a(I3
g13
tp839
a(I4
g13
tp840
a(I5
g13
tp841
a(I6
g13
tp842
a(I7
g13
tp843
a(I8
g13
tp844
a(I9
g13
tp845
a(I10
g13
tp846
a(I11
g13
tp847
a(I12
g13
tp848
a(I13
g13
tp849
a(I14
g13
tp850
a(I15
F0.029999999999999999
tp851
a(I16
F0.029999999999999999
tp852
a(I17
F0.029999999999999999
tp853
a(I18
F0.029999999999999999
tp854
a(I19
F0.029999999999999999
tp855
a(I20
F0.029999999999999999
tp856
a(I21
F0.029999999999999999
tp857
a(I22
F0.029999999999999999
tp858
a(I23
F0.029999999999999999
tp859
a(I24
F0.029999999999999999
tp860
a(I25
F0.029999999999999999
tp861
a(I26
F0.029999999999999999
tp862
a(I27
F0.029999999999999999
tp863
a(I28
F0.029999999999999999
tp864
a(I29
F0.029999999999999999
tp865
a(I30
F0.029999999999999999
tp866
a(I31
F0.029999999999999999
tp867
a(I32
F0.029999999999999999
tp868
a(I33
F0.029999999999999999
tp869
a(I34
F0.029999999999999999
tp870
a(I35
F0.029999999999999999
tp871
a(I36
F0.029999999999999999
tp872
a(I37
F0.029999999999999999
tp873
a(I38
F0.029999999999999999
tp874
a(I39
F0.029999999999999999
tp875
a(I40
F0.029999999999999999
tp876
a(I41
F0.029999999999999999
tp877
a(I42
F0.029999999999999999
tp878
a(I43
F0.029999999999999999
tp879
a(I44
F0.029999999999999999
tp880
a(I45
F0.029999999999999999
tp881
a(I46
F0.029999999999999999
tp882
a(I47
F0.029999999999999999
tp883
a(I48
F0.029999999999999999
tp884
a(I49
F0.029999999999999999
tp885
a(I50
F0.029999999999999999
tp886
a(I51
F0.029999999999999999
tp887
a(I52
F0.029999999999999999
tp888
a(I53
F0.029999999999999999
tp889
a(I54
F0.029999999999999999
tp890
a(I55
F0.029999999999999999
tp891
a(I56
F0.029999999999999999
tp892
a(I57
F0.029999999999999999
tp893
a(I58
F0.029999999999999999
tp894
a(I59
F0.029999999999999999
tp895
a(I60
F0.029999999999999999
tp896
a(I61
F0.029999999999999999
tp897
a(I62
F0.029999999999999999
tp898
a(I63
F0.029999999999999999
tp899
a(I64
F0.029999999999999999
tp900
a(I65
F0.029999999999999999
tp901
a(I66
F0.029999999999999999
tp902
a(I67
F0.029999999999999999
tp903
a(I68
F0.029999999999999999
tp904
a(I69
F0.029999999999999999
tp905
a(I70
F0.029999999999999999
tp906
a(I71
F0.029999999999999999
tp907
a(I72
F0.029999999999999999
tp908
a(I73
F0.029999999999999999
tp909
a(I74
F0.029999999999999999
tp910
a(I75
F0.029999999999999999
tp911
a(I76
F0.029999999999999999
tp912
a(I77
F0.029999999999999999
tp913
a(I78
F0.029999999999999999
tp914
a(I79
F0.029999999999999999
tp915
a(I80
F0.029999999999999999
tp916
a(I81
F0.029999999999999999
tp917
a(I82
F0.029999999999999999
tp918
a(I83
F0.029999999999999999
tp919
a(I84
F0.029999999999999999
tp920
a(I85
F0.029999999999999999
tp921
a(I86
F0.029999999999999999
tp922
a(I87
F0.029999999999999999
tp923
a(I88
F0.029999999999999999
tp924
a(I89
F0.029999999999999999
tp925
a(I90
F0.029999999999999999
tp926
a(I91
F0.029999999999999999
tp927
a(I92
F0.029999999999999999
tp928
a(I93
F0.029999999999999999
tp929
a(I94
F0.029999999999999999
tp930
a(I95
F0.029999999999999999
tp931
a(I96
F0.029999999999999999
tp932
a(I97
F0.029999999999999999
tp933
a(I98
F0.029999999999999999
tp934
a(I99
F0.029999999999999999
tp935
a(I100
F0.029999999999999999
tp936
a(I101
F0.029999999999999999
tp937
a(I102
F0.029999999999999999
tp938
a(I103
F0.029999999999999999
tp939
a(I104
F0.029999999999999999
tp940
a(I105
F0.029999999999999999
tp941
a(I106
F0.029999999999999999
tp942
a(I107
F0.029999999999999999
tp943
a(I108
F0.029999999999999999
tp944
a(I109
F0.029999999999999999
tp945
a(I110
F0.029999999999999999
tp946
a(I111
F0.029999999999999999
tp947
a(I112
F0.029999999999999999
tp948
a(I113
F0.029999999999999999
tp949
a(I114
F0.029999999999999999
tp950
a(I115
F0.029999999999999999
tp951
a(I116
F0.029999999999999999
tp952
a(I117
F0.029999999999999999
tp953
a(I118
F0.029999999999999999
tp954
a(I119
F0.029999999999999999
tp955
a(I120
F0.029999999999999999
tp956
a(I121
F0.029999999999999999
tp957
a(I122
F0.029999999999999999
tp958
a(I123
F0.029999999999999999
tp959
a(I124
F0.029999999999999999
tp960
a(I125
F0.029999999999999999
tp961
a(I126
F0.029999999999999999
tp962
a(I127
F0.029999999999999999
tp963
a(I128
F0.029999999999999999
tp964
a(I129
F0.029999999999999999
tp965
a(I130
F0.029999999999999999
tp966
a(I131
F0.029999999999999999
tp967
a(I132
F0.029999999999999999
tp968
a(I133
F0.029999999999999999
tp969
a(I134
F0.029999999999999999
tp970
a(I135
F0.029999999999999999
tp971
a(I136
F0.029999999999999999
tp972
a(I137
F0.029999999999999999
tp973
a(I138
F0.029999999999999999
tp974
a(I139
F0.029999999999999999
tp975
a(I140
F0.029999999999999999
tp976
a(I141
F0.029999999999999999
tp977
a(I142
F0.029999999999999999
tp978
a(I143
F0.029999999999999999
tp979
a(I144
F0.029999999999999999
tp980
a(I145
F0.029999999999999999
tp981
a(I146
F0.029999999999999999
tp982
a(I147
F0.029999999999999999
tp983
a(I148
F0.029999999999999999
tp984
a(I149
F0.029999999999999999
tp985
a(I150
F0.029999999999999999
tp986
a(I151
F0.029999999999999999
tp987
a(I152
F0.029999999999999999
tp988
a(I153
F0.029999999999999999
tp989
a(I154
F0.029999999999999999
tp990
a(I155
F0.029999999999999999
tp991
a(I156
F0.029999999999999999
tp992
a(I157
F0.029999999999999999
tp993
a(I158
F0.029999999999999999
tp994
a(I159
F0.029999999999999999
tp995
a(I160
F0.029999999999999999
tp996
a(I161
F0.029999999999999999
tp997
a(I162
F0.029999999999999999
tp998
a(I163
F0.029999999999999999
tp999
a(I164
F0.029999999999999999
tp1000
a(I165
F0.029999999999999999
tp1001
a(I166
F0.029999999999999999
tp1002
a(I167
F0.029999999999999999
tp1003
a(I168
F0.029999999999999999
tp1004
a(I169
F0.029999999999999999
tp1005
a(I170
F0.029999999999999999
tp1006
a(I171
F0.029999999999999999
tp1007
a(I172
F0.029999999999999999
tp1008
a(I173
F0.029999999999999999
tp1009
a(I174
F0.029999999999999999
tp1010
a(I175
F0.029999999999999999
tp1011
a(I176
F0.029999999999999999
tp1012
a(I177
F0.029999999999999999
tp1013
a(I178
F0.029999999999999999
tp1014
a(I179
F0.029999999999999999
tp1015
a(I180
F0.029999999999999999
tp1016
a(I181
F0.029999999999999999
tp1017
a(I182
F0.029999999999999999
tp1018
a(I183
F0.029999999999999999
tp1019
a(I184
F0.029999999999999999
tp1020
a(I185
F0.029999999999999999
tp1021
a(I186
F0.029999999999999999
tp1022
a(I187
F0.029999999999999999
tp1023
a(I188
F0.029999999999999999
tp1024
a(I189
F0.029999999999999999
tp1025
a(I190
F0.029999999999999999
tp1026
a(I191
F0.029999999999999999
tp1027
a(I192
F0.029999999999999999
tp1028
a(I193
F0.029999999999999999
tp1029
a(I194
F0.029999999999999999
tp1030
a(I195
F0.029999999999999999
tp1031
a(I196
F0.029999999999999999
tp1032
a(I197
F0.029999999999999999
tp1033
a(I198
F0.029999999999999999
tp1034
a(I199
F0.029999999999999999
tp1035
a(I200
F0.029999999999999999
tp1036
a(I201
F0.029999999999999999
tp1037
a(I202
F0.029999999999999999
tp1038
a(I203
F0.029999999999999999
tp1039
a(I204
F0.029999999999999999
tp1040
a(I205
F0.029999999999999999
tp1041
a(I206
F0.029999999999999999
tp1042
a(I207
F0.029999999999999999
tp1043
a(I208
F0.029999999999999999
tp1044
a(I209
F0.029999999999999999
tp1045
a(I210
F0.029999999999999999
tp1046
a(I211
F0.029999999999999999
tp1047
a(I212
F0.029999999999999999
tp1048
a(I213
F0.029999999999999999
tp1049
a(I214
F0.029999999999999999
tp1050
a(I215
F0.029999999999999999
tp1051
a(I216
F0.029999999999999999
tp1052
a(I217
F0.029999999999999999
tp1053
a(I218
F0.029999999999999999
tp1054
a(I219
F0.029999999999999999
tp1055
a(I220
F0.029999999999999999
tp1056
a(I221
F0.029999999999999999
tp1057
a(I222
F0.029999999999999999
tp1058
a(I223
F0.029999999999999999
tp1059
a(I224
F0.029999999999999999
tp1060
a(I225
F0.029999999999999999
tp1061
a(I226
F0.029999999999999999
tp1062
a(I227
F0.029999999999999999
tp1063
a(I228
F0.029999999999999999
tp1064
a(I229
F0.029999999999999999
tp1065
a(I230
F0.029999999999999999
tp1066
a(I231
F0.029999999999999999
tp1067
a(I232
F0.029999999999999999
tp1068
a(I233
F0.029999999999999999
tp1069
a(I234
F0.029999999999999999
tp1070
a(I235
F0.029999999999999999
tp1071
a(I236
F0.029999999999999999
tp1072
a(I237
F0.029999999999999999
tp1073
a(I238
F0.029999999999999999
tp1074
a(I239
F0.029999999999999999
tp1075
a(I240
F0.029999999999999999
tp1076
a(I241
F0.029999999999999999
tp1077
a(I242
F0.029999999999999999
tp1078
a(I243
F0.029999999999999999
tp1079
a(I244
F0.029999999999999999
tp1080
a(I245
F0.029999999999999999
tp1081
a(I246
F0.029999999999999999
tp1082
a(I247
F0.029999999999999999
tp1083
a(I248
F0.029999999999999999
tp1084
a(I249
F0.029999999999999999
tp1085
a(I250
F0.029999999999999999
tp1086
a(I251
F0.029999999999999999
tp1087
a(I252
F0.029999999999999999
tp1088
a(I253
F0.029999999999999999
tp1089
a(I254
F0.029999999999999999
tp1090
a(I255
F0.029999999999999999
tp1091
a(I256
F0.029999999999999999
tp1092
a(I257
F0.029999999999999999
tp1093
a(I258
F0.029999999999999999
tp1094
a(I259
F0.029999999999999999
tp1095
a(I260
F0.029999999999999999
tp1096
a(I261
F0.029999999999999999
tp1097
a(I262
F0.029999999999999999
tp1098
a(I263
F0.029999999999999999
tp1099
a(I264
F0.029999999999999999
tp1100
a(I265
F0.029999999999999999
tp1101
a(I266
F0.029999999999999999
tp1102
a(I267
F0.029999999999999999
tp1103
a(I268
F0.029999999999999999
tp1104
a(I269
F0.029999999999999999
tp1105
a(I270
F0.029999999999999999
tp1106
a(I271
g13
tp1107
asS'rate_b'
p1108
(lp1109
(I0
g13
tp1110
a(I1
g13
tp1111
a(I2
g13
tp1112
a(I3
g13
tp1113
a(I4
g13
tp1114
a(I5
g13
tp1115
a(I6
g13
tp1116
a(I7
g13
tp1117
a(I8
g13
tp1118
a(I9
g13
tp1119
a(I10
g13
tp1120
a(I11
g13
tp1121
a(I12
g13
tp1122
a(I13
g13
tp1123
a(I14
g13
tp1124
a(I15
g13
tp1125
a(I16
F0.014999999999999999
tp1126
a(I17
F0.014999999999999999
tp1127
a(I18
F0.014999999999999999
tp1128
a(I19
F0.014999999999999999
tp1129
a(I20
F0.014999999999999999
tp1130
a(I21
F0.014999999999999999
tp1131
a(I22
F0.014999999999999999
tp1132
a(I23
F0.014999999999999999
tp1133
a(I24
F0.014999999999999999
tp1134
a(I25
F0.014999999999999999
tp1135
a(I26
F0.014999999999999999
tp1136
a(I27
F0.014999999999999999
tp1137
a(I28
F0.014999999999999999
tp1138
a(I29
F0.014999999999999999
tp1139
a(I30
F0.014999999999999999
tp1140
a(I31
F0.014999999999999999
tp1141
a(I32
F0.014999999999999999
tp1142
a(I33
F0.014999999999999999
tp1143
a(I34
F0.014999999999999999
tp1144
a(I35
F0.014999999999999999
tp1145
a(I36
F0.014999999999999999
tp1146
a(I37
F0.014999999999999999
tp1147
a(I38
F0.014999999999999999
tp1148
a(I39
F0.014999999999999999
tp1149
a(I40
F0.014999999999999999
tp1150
a(I41
F0.014999999999999999
tp1151
a(I42
F0.014999999999999999
tp1152
a(I43
F0.014999999999999999
tp1153
a(I44
F0.014999999999999999
tp1154
a(I45
F0.014999999999999999
tp1155
a(I46
F0.014999999999999999
tp1156
a(I47
F0.014999999999999999
tp1157
a(I48
F0.014999999999999999
tp1158
a(I49
F0.014999999999999999
tp1159
a(I50
F0.014999999999999999
tp1160
a(I51
F0.014999999999999999
tp1161
a(I52
F0.014999999999999999
tp1162
a(I53
F0.014999999999999999
tp1163
a(I54
F0.014999999999999999
tp1164
a(I55
F0.014999999999999999
tp1165
a(I56
F0.014999999999999999
tp1166
a(I57
F0.014999999999999999
tp1167
a(I58
F0.014999999999999999
tp1168
a(I59
F0.014999999999999999
tp1169
a(I60
F0.014999999999999999
tp1170
a(I61
F0.014999999999999999
tp1171
a(I62
F0.014999999999999999
tp1172
a(I63
F0.014999999999999999
tp1173
a(I64
F0.014999999999999999
tp1174
a(I65
F0.014999999999999999
tp1175
a(I66
F0.014999999999999999
tp1176
a(I67
F0.014999999999999999
tp1177
a(I68
F0.014999999999999999
tp1178
a(I69
F0.014999999999999999
tp1179
a(I70
F0.014999999999999999
tp1180
a(I71
F0.014999999999999999
tp1181
a(I72
F0.014999999999999999
tp1182
a(I73
F0.014999999999999999
tp1183
a(I74
F0.014999999999999999
tp1184
a(I75
F0.014999999999999999
tp1185
a(I76
F0.014999999999999999
tp1186
a(I77
F0.014999999999999999
tp1187
a(I78
F0.014999999999999999
tp1188
a(I79
F0.014999999999999999
tp1189
a(I80
F0.014999999999999999
tp1190
a(I81
F0.014999999999999999
tp1191
a(I82
F0.014999999999999999
tp1192
a(I83
F0.014999999999999999
tp1193
a(I84
F0.014999999999999999
tp1194
a(I85
F0.014999999999999999
tp1195
a(I86
F0.014999999999999999
tp1196
a(I87
F0.014999999999999999
tp1197
a(I88
F0.014999999999999999
tp1198
a(I89
F0.014999999999999999
tp1199
a(I90
F0.014999999999999999
tp1200
a(I91
F0.014999999999999999
tp1201
a(I92
F0.014999999999999999
tp1202
a(I93
F0.014999999999999999
tp1203
a(I94
F0.014999999999999999
tp1204
a(I95
F0.014999999999999999
tp1205
a(I96
F0.014999999999999999
tp1206
a(I97
F0.014999999999999999
tp1207
a(I98
F0.014999999999999999
tp1208
a(I99
F0.014999999999999999
tp1209
a(I100
F0.014999999999999999
tp1210
a(I101
F0.014999999999999999
tp1211
a(I102
F0.014999999999999999
tp1212
a(I103
F0.014999999999999999
tp1213
a(I104
F0.014999999999999999
tp1214
a(I105
F0.014999999999999999
tp1215
a(I106
F0.014999999999999999
tp1216
a(I107
F0.014999999999999999
tp1217
a(I108
F0.014999999999999999
tp1218
a(I109
F0.014999999999999999
tp1219
a(I110
F0.014999999999999999
tp1220
a(I111
F0.014999999999999999
tp1221
a(I112
F0.014999999999999999
tp1222
a(I113
F0.014999999999999999
tp1223
a(I114
F0.014999999999999999
tp1224
a(I115
F0.014999999999999999
tp1225
a(I116
F0.014999999999999999
tp1226
a(I117
F0.014999999999999999
tp1227
a(I118
F0.014999999999999999
tp1228
a(I119
F0.014999999999999999
tp1229
a(I120
F0.014999999999999999
tp1230
a(I121
F0.014999999999999999
tp1231
a(I122
F0.014999999999999999
tp1232
a(I123
F0.014999999999999999
tp1233
a(I124
F0.014999999999999999
tp1234
a(I125
F0.014999999999999999
tp1235
a(I126
F0.014999999999999999
tp1236
a(I127
F0.014999999999999999
tp1237
a(I128
F0.014999999999999999
tp1238
a(I129
F0.014999999999999999
tp1239
a(I130
F0.014999999999999999
tp1240
a(I131
F0.014999999999999999
tp1241
a(I132
F0.014999999999999999
tp1242
a(I133
F0.014999999999999999
tp1243
a(I134
F0.014999999999999999
tp1244
a(I135
F0.014999999999999999
tp1245
a(I136
F0.014999999999999999
tp1246
a(I137
F0.014999999999999999
tp1247
a(I138
F0.014999999999999999
tp1248
a(I139
F0.014999999999999999
tp1249
a(I140
F0.014999999999999999
tp1250
a(I141
F0.014999999999999999
tp1251
a(I142
F0.014999999999999999
tp1252
a(I143
F0.014999999999999999
tp1253
a(I144
F0.014999999999999999
tp1254
a(I145
F0.014999999999999999
tp1255
a(I146
F0.014999999999999999
tp1256
a(I147
F0.014999999999999999
tp1257
a(I148
F0.014999999999999999
tp1258
a(I149
F0.014999999999999999
tp1259
a(I150
F0.014999999999999999
tp1260
a(I151
F0.014999999999999999
tp1261
a(I152
F0.014999999999999999
tp1262
a(I153
F0.014999999999999999
tp1263
a(I154
F0.014999999999999999
tp1264
a(I155
F0.014999999999999999
tp1265
a(I156
F0.014999999999999999
tp1266
a(I157
F0.014999999999999999
tp1267
a(I158
F0.014999999999999999
tp1268
a(I159
F0.014999999999999999
tp1269
a(I160
F0.014999999999999999
tp1270
a(I161
F0.014999999999999999
tp1271
a(I162
F0.014999999999999999
tp1272
a(I163
F0.014999999999999999
tp1273
a(I164
F0.014999999999999999
tp1274
a(I165
F0.014999999999999999
tp1275
a(I166
F0.014999999999999999
tp1276
a(I167
F0.014999999999999999
tp1277
a(I168
F0.014999999999999999
tp1278
a(I169
F0.014999999999999999
tp1279
a(I170
F0.014999999999999999
tp1280
a(I171
F0.014999999999999999
tp1281
a(I172
F0.014999999999999999
tp1282
a(I173
F0.014999999999999999
tp1283
a(I174
F0.014999999999999999
tp1284
a(I175
F0.014999999999999999
tp1285
a(I176
F0.014999999999999999
tp1286
a(I177
F0.014999999999999999
tp1287
a(I178
F0.014999999999999999
tp1288
a(I179
F0.014999999999999999
tp1289
a(I180
F0.014999999999999999
tp1290
a(I181
F0.014999999999999999
tp1291
a(I182
F0.014999999999999999
tp1292
a(I183
F0.014999999999999999
tp1293
a(I184
F0.014999999999999999
tp1294
a(I185
F0.014999999999999999
tp1295
a(I186
F0.014999999999999999
tp1296
a(I187
F0.014999999999999999
tp1297
a(I188
F0.014999999999999999
tp1298
a(I189
F0.014999999999999999
tp1299
a(I190
F0.014999999999999999
tp1300
a(I191
F0.014999999999999999
tp1301
a(I192
F0.014999999999999999
tp1302
a(I193
F0.014999999999999999
tp1303
a(I194
F0.014999999999999999
tp1304
a(I195
F0.014999999999999999
tp1305
a(I196
F0.014999999999999999
tp1306
a(I197
F0.014999999999999999
tp1307
a(I198
F0.014999999999999999
tp1308
a(I199
F0.014999999999999999
tp1309
a(I200
F0.014999999999999999
tp1310
a(I201
F0.014999999999999999
tp1311
a(I202
F0.014999999999999999
tp1312
a(I203
F0.014999999999999999
tp1313
a(I204
F0.014999999999999999
tp1314
a(I205
F0.014999999999999999
tp1315
a(I206
F0.014999999999999999
tp1316
a(I207
F0.014999999999999999
tp1317
a(I208
F0.014999999999999999
tp1318
a(I209
F0.014999999999999999
tp1319
a(I210
F0.014999999999999999
tp1320
a(I211
F0.014999999999999999
tp1321
a(I212
F0.014999999999999999
tp1322
a(I213
F0.014999999999999999
tp1323
a(I214
F0.014999999999999999
tp1324
a(I215
F0.014999999999999999
tp1325
a(I216
F0.014999999999999999
tp1326
a(I217
F0.014999999999999999
tp1327
a(I218
F0.014999999999999999
tp1328
a(I219
F0.014999999999999999
tp1329
a(I220
F0.014999999999999999
tp1330
a(I221
F0.014999999999999999
tp1331
a(I222
F0.014999999999999999
tp1332
a(I223
F0.014999999999999999
tp1333
a(I224
F0.014999999999999999
tp1334
a(I225
F0.014999999999999999
tp1335
a(I226
F0.014999999999999999
tp1336
a(I227
F0.014999999999999999
tp1337
a(I228
F0.014999999999999999
tp1338
a(I229
F0.014999999999999999
tp1339
a(I230
F0.014999999999999999
tp1340
a(I231
F0.014999999999999999
tp1341
a(I232
F0.014999999999999999
tp1342
a(I233
F0.014999999999999999
tp1343
a(I234
F0.014999999999999999
tp1344
a(I235
F0.014999999999999999
tp1345
a(I236
F0.014999999999999999
tp1346
a(I237
F0.014999999999999999
tp1347
a(I238
F0.014999999999999999
tp1348
a(I239
F0.014999999999999999
tp1349
a(I240
F0.014999999999999999
tp1350
a(I241
F0.014999999999999999
tp1351
a(I242
F0.014999999999999999
tp1352
a(I243
F0.014999999999999999
tp1353
a(I244
F0.014999999999999999
tp1354
a(I245
F0.014999999999999999
tp1355
a(I246
F0.014999999999999999
tp1356
a(I247
F0.014999999999999999
tp1357
a(I248
F0.014999999999999999
tp1358
a(I249
F0.014999999999999999
tp1359
a(I250
F0.014999999999999999
tp1360
a(I251
F0.014999999999999999
tp1361
a(I252
F0.014999999999999999
tp1362
a(I253
F0.014999999999999999
tp1363
a(I254
F0.014999999999999999
tp1364
a(I255
F0.014999999999999999
tp1365
a(I256
F0.014999999999999999
tp1366
a(I257
F0.014999999999999999
tp1367
a(I258
F0.014999999999999999
tp1368
a(I259
F0.014999999999999999
tp1369
a(I260
F0.014999999999999999
tp1370
a(I261
F0.014999999999999999
tp1371
a(I262
F0.014999999999999999
tp1372
a(I263
F0.014999999999999999
tp1373
a(I264
F0.014999999999999999
tp1374
a(I265
F0.014999999999999999
tp1375
a(I266
F0.014999999999999999
tp1376
a(I267
F0.014999999999999999
tp1377
a(I268
F0.014999999999999999
tp1378
a(I269
F0.014999999999999999
tp1379
a(I270
F0.014999999999999999
tp1380
a(I271
g13
tp1381
asS'__return__'
p1382
(lp1383
(I0
g13
tp1384
a(I1
g13
tp1385
a(I2
g13
tp1386
a(I3
g13
tp1387
a(I4
g13
tp1388
a(I5
g13
tp1389
a(I6
g13
tp1390
a(I7
g13
tp1391
a(I8
g13
tp1392
a(I9
g13
tp1393
a(I10
g13
tp1394
a(I11
g13
tp1395
a(I12
g13
tp1396
a(I13
g13
tp1397
a(I14
g13
tp1398
a(I15
g13
tp1399
a(I16
g13
tp1400
a(I17
g13
tp1401
a(I18
g13
tp1402
a(I19
g13
tp1403
a(I20
g13
tp1404
a(I21
g13
tp1405
a(I22
g13
tp1406
a(I23
g13
tp1407
a(I24
g13
tp1408
a(I25
g13
tp1409
a(I26
g13
tp1410
a(I27
g13
tp1411
a(I28
g13
tp1412
a(I29
g13
tp1413
a(I30
g13
tp1414
a(I31
g13
tp1415
a(I32
g13
tp1416
a(I33
g13
tp1417
a(I34
g13
tp1418
a(I35
g13
tp1419
a(I36
g13
tp1420
a(I37
g13
tp1421
a(I38
g13
tp1422
a(I39
g13
tp1423
a(I40
g13
tp1424
a(I41
g13
tp1425
a(I42
g13
tp1426
a(I43
g13
tp1427
a(I44
g13
tp1428
a(I45
g13
tp1429
a(I46
g13
tp1430
a(I47
g13
tp1431
a(I48
g13
tp1432
a(I49
g13
tp1433
a(I50
g13
tp1434
a(I51
g13
tp1435
a(I52
g13
tp1436
a(I53
g13
tp1437
a(I54
g13
tp1438
a(I55
g13
tp1439
a(I56
g13
tp1440
a(I57
g13
tp1441
a(I58
g13
tp1442
a(I59
g13
tp1443
a(I60
g13
tp1444
a(I61
g13
tp1445
a(I62
g13
tp1446
a(I63
g13
tp1447
a(I64
g13
tp1448
a(I65
g13
tp1449
a(I66
g13
tp1450
a(I67
g13
tp1451
a(I68
g13
tp1452
a(I69
g13
tp1453
a(I70
g13
tp1454
a(I71
g13
tp1455
a(I72
g13
tp1456
a(I73
g13
tp1457
a(I74
g13
tp1458
a(I75
g13
tp1459
a(I76
g13
tp1460
a(I77
g13
tp1461
a(I78
g13
tp1462
a(I79
g13
tp1463
a(I80
g13
tp1464
a(I81
g13
tp1465
a(I82
g13
tp1466
a(I83
g13
tp1467
a(I84
g13
tp1468
a(I85
g13
tp1469
a(I86
g13
tp1470
a(I87
g13
tp1471
a(I88
g13
tp1472
a(I89
g13
tp1473
a(I90
g13
tp1474
a(I91
g13
tp1475
a(I92
g13
tp1476
a(I93
g13
tp1477
a(I94
g13
tp1478
a(I95
g13
tp1479
a(I96
g13
tp1480
a(I97
g13
tp1481
a(I98
g13
tp1482
a(I99
g13
tp1483
a(I100
g13
tp1484
a(I101
g13
tp1485
a(I102
g13
tp1486
a(I103
g13
tp1487
a(I104
g13
tp1488
a(I105
g13
tp1489
a(I106
g13
tp1490
a(I107
g13
tp1491
a(I108
g13
tp1492
a(I109
g13
tp1493
a(I110
g13
tp1494
a(I111
g13
tp1495
a(I112
g13
tp1496
a(I113
g13
tp1497
a(I114
g13
tp1498
a(I115
g13
tp1499
a(I116
g13
tp1500
a(I117
g13
tp1501
a(I118
g13
tp1502
a(I119
g13
tp1503
a(I120
g13
tp1504
a(I121
g13
tp1505
a(I122
g13
tp1506
a(I123
g13
tp1507
a(I124
g13
tp1508
a(I125
g13
tp1509
a(I126
g13
tp1510
a(I127
g13
tp1511
a(I128
g13
tp1512
a(I129
g13
tp1513
a(I130
g13
tp1514
a(I131
g13
tp1515
a(I132
g13
tp1516
a(I133
g13
tp1517
a(I134
g13
tp1518
a(I135
g13
tp1519
a(I136
g13
tp1520
a(I137
g13
tp1521
a(I138
g13
tp1522
a(I139
g13
tp1523
a(I140
g13
tp1524
a(I141
g13
tp1525
a(I142
g13
tp1526
a(I143
g13
tp1527
a(I144
g13
tp1528
a(I145
g13
tp1529
a(I146
g13
tp1530
a(I147
g13
tp1531
a(I148
g13
tp1532
a(I149
g13
tp1533
a(I150
g13
tp1534
a(I151
g13
tp1535
a(I152
g13
tp1536
a(I153
g13
tp1537
a(I154
g13
tp1538
a(I155
g13
tp1539
a(I156
g13
tp1540
a(I157
g13
tp1541
a(I158
g13
tp1542
a(I159
g13
tp1543
a(I160
g13
tp1544
a(I161
g13
tp1545
a(I162
g13
tp1546
a(I163
g13
tp1547
a(I164
g13
tp1548
a(I165
g13
tp1549
a(I166
g13
tp1550
a(I167
g13
tp1551
a(I168
g13
tp1552
a(I169
g13
tp1553
a(I170
g13
tp1554
a(I171
g13
tp1555
a(I172
g13
tp1556
a(I173
g13
tp1557
a(I174
g13
tp1558
a(I175
g13
tp1559
a(I176
g13
tp1560
a(I177
g13
tp1561
a(I178
g13
tp1562
a(I179
g13
tp1563
a(I180
g13
tp1564
a(I181
g13
tp1565
a(I182
g13
tp1566
a(I183
g13
tp1567
a(I184
g13
tp1568
a(I185
g13
tp1569
a(I186
g13
tp1570
a(I187
g13
tp1571
a(I188
g13
tp1572
a(I189
g13
tp1573
a(I190
g13
tp1574
a(I191
g13
tp1575
a(I192
g13
tp1576
a(I193
g13
tp1577
a(I194
g13
tp1578
a(I195
g13
tp1579
a(I196
g13
tp1580
a(I197
g13
tp1581
a(I198
g13
tp1582
a(I199
g13
tp1583
a(I200
g13
tp1584
a(I201
g13
tp1585
a(I202
g13
tp1586
a(I203
g13
tp1587
a(I204
g13
tp1588
a(I205
g13
tp1589
a(I206
g13
tp1590
a(I207
g13
tp1591
a(I208
g13
tp1592
a(I209
g13
tp1593
a(I210
g13
tp1594
a(I211
g13
tp1595
a(I212
g13
tp1596
a(I213
g13
tp1597
a(I214
g13
tp1598
a(I215
g13
tp1599
a(I216
g13
tp1600
a(I217
g13
tp1601
a(I218
g13
tp1602
a(I219
g13
tp1603
a(I220
g13
tp1604
a(I221
g13
tp1605
a(I222
g13
tp1606
a(I223
g13
tp1607
a(I224
g13
tp1608
a(I225
g13
tp1609
a(I226
g13
tp1610
a(I227
g13
tp1611
a(I228
g13
tp1612
a(I229
g13
tp1613
a(I230
g13
tp1614
a(I231
g13
tp1615
a(I232
g13
tp1616
a(I233
g13
tp1617
a(I234
g13
tp1618
a(I235
g13
tp1619
a(I236
g13
tp1620
a(I237
g13
tp1621
a(I238
g13
tp1622
a(I239
g13
tp1623
a(I240
g13
tp1624
a(I241
g13
tp1625
a(I242
g13
tp1626
a(I243
g13
tp1627
a(I244
g13
tp1628
a(I245
g13
tp1629
a(I246
g13
tp1630
a(I247
g13
tp1631
a(I248
g13
tp1632
a(I249
g13
tp1633
a(I250
g13
tp1634
a(I251
g13
tp1635
a(I252
g13
tp1636
a(I253
g13
tp1637
a(I254
g13
tp1638
a(I255
g13
tp1639
a(I256
g13
tp1640
a(I257
g13
tp1641
a(I258
g13
tp1642
a(I259
g13
tp1643
a(I260
g13
tp1644
a(I261
g13
tp1645
a(I262
g13
tp1646
a(I263
g13
tp1647
a(I264
g13
tp1648
a(I265
g13
tp1649
a(I266
g13
tp1650
a(I267
g13
tp1651
a(I268
g13
tp1652
a(I269
g13
tp1653
a(I270
I63
tp1654
a(I271
g13
tp1655
asS'__lineNo__'
p1656
(lp1657
(I0
I1
tp1658
a(I1
I2
tp1659
a(I2
I3
tp1660
a(I3
I4
tp1661
a(I4
I16
tp1662
a(I5
I18
tp1663
a(I6
I21
tp1664
a(I7
I24
tp1665
a(I8
I27
tp1666
a(I9
I31
tp1667
a(I10
I4
tp1668
a(I11
I5
tp1669
a(I12
I6
tp1670
a(I13
I7
tp1671
a(I14
I8
tp1672
a(I15
I9
tp1673
a(I16
I10
tp1674
a(I17
I11
tp1675
a(I18
I12
tp1676
a(I19
I13
tp1677
a(I20
I10
tp1678
a(I21
I11
tp1679
a(I22
I12
tp1680
a(I23
I13
tp1681
a(I24
I10
tp1682
a(I25
I11
tp1683
a(I26
I12
tp1684
a(I27
I13
tp1685
a(I28
I10
tp1686
a(I29
I11
tp1687
a(I30
I12
tp1688
a(I31
I13
tp1689
a(I32
I10
tp1690
a(I33
I11
tp1691
a(I34
I12
tp1692
a(I35
I13
tp1693
a(I36
I10
tp1694
a(I37
I11
tp1695
a(I38
I12
tp1696
a(I39
I13
tp1697
a(I40
I10
tp1698
a(I41
I11
tp1699
a(I42
I12
tp1700
a(I43
I13
tp1701
a(I44
I10
tp1702
a(I45
I11
tp1703
a(I46
I12
tp1704
a(I47
I13
tp1705
a(I48
I10
tp1706
a(I49
I11
tp1707
a(I50
I12
tp1708
a(I51
I13
tp1709
a(I52
I10
tp1710
a(I53
I11
tp1711
a(I54
I12
tp1712
a(I55
I13
tp1713
a(I56
I10
tp1714
a(I57
I11
tp1715
a(I58
I12
tp1716
a(I59
I13
tp1717
a(I60
I10
tp1718
a(I61
I11
tp1719
a(I62
I12
tp1720
a(I63
I13
tp1721
a(I64
I10
tp1722
a(I65
I11
tp1723
a(I66
I12
tp1724
a(I67
I13
tp1725
a(I68
I10
tp1726
a(I69
I11
tp1727
a(I70
I12
tp1728
a(I71
I13
tp1729
a(I72
I10
tp1730
a(I73
I11
tp1731
a(I74
I12
tp1732
a(I75
I13
tp1733
a(I76
I10
tp1734
a(I77
I11
tp1735
a(I78
I12
tp1736
a(I79
I13
tp1737
a(I80
I10
tp1738
a(I81
I11
tp1739
a(I82
I12
tp1740
a(I83
I13
tp1741
a(I84
I10
tp1742
a(I85
I11
tp1743
a(I86
I12
tp1744
a(I87
I13
tp1745
a(I88
I10
tp1746
a(I89
I11
tp1747
a(I90
I12
tp1748
a(I91
I13
tp1749
a(I92
I10
tp1750
a(I93
I11
tp1751
a(I94
I12
tp1752
a(I95
I13
tp1753
a(I96
I10
tp1754
a(I97
I11
tp1755
a(I98
I12
tp1756
a(I99
I13
tp1757
a(I100
I10
tp1758
a(I101
I11
tp1759
a(I102
I12
tp1760
a(I103
I13
tp1761
a(I104
I10
tp1762
a(I105
I11
tp1763
a(I106
I12
tp1764
a(I107
I13
tp1765
a(I108
I10
tp1766
a(I109
I11
tp1767
a(I110
I12
tp1768
a(I111
I13
tp1769
a(I112
I10
tp1770
a(I113
I11
tp1771
a(I114
I12
tp1772
a(I115
I13
tp1773
a(I116
I10
tp1774
a(I117
I11
tp1775
a(I118
I12
tp1776
a(I119
I13
tp1777
a(I120
I10
tp1778
a(I121
I11
tp1779
a(I122
I12
tp1780
a(I123
I13
tp1781
a(I124
I10
tp1782
a(I125
I11
tp1783
a(I126
I12
tp1784
a(I127
I13
tp1785
a(I128
I10
tp1786
a(I129
I11
tp1787
a(I130
I12
tp1788
a(I131
I13
tp1789
a(I132
I10
tp1790
a(I133
I11
tp1791
a(I134
I12
tp1792
a(I135
I13
tp1793
a(I136
I10
tp1794
a(I137
I11
tp1795
a(I138
I12
tp1796
a(I139
I13
tp1797
a(I140
I10
tp1798
a(I141
I11
tp1799
a(I142
I12
tp1800
a(I143
I13
tp1801
a(I144
I10
tp1802
a(I145
I11
tp1803
a(I146
I12
tp1804
a(I147
I13
tp1805
a(I148
I10
tp1806
a(I149
I11
tp1807
a(I150
I12
tp1808
a(I151
I13
tp1809
a(I152
I10
tp1810
a(I153
I11
tp1811
a(I154
I12
tp1812
a(I155
I13
tp1813
a(I156
I10
tp1814
a(I157
I11
tp1815
a(I158
I12
tp1816
a(I159
I13
tp1817
a(I160
I10
tp1818
a(I161
I11
tp1819
a(I162
I12
tp1820
a(I163
I13
tp1821
a(I164
I10
tp1822
a(I165
I11
tp1823
a(I166
I12
tp1824
a(I167
I13
tp1825
a(I168
I10
tp1826
a(I169
I11
tp1827
a(I170
I12
tp1828
a(I171
I13
tp1829
a(I172
I10
tp1830
a(I173
I11
tp1831
a(I174
I12
tp1832
a(I175
I13
tp1833
a(I176
I10
tp1834
a(I177
I11
tp1835
a(I178
I12
tp1836
a(I179
I13
tp1837
a(I180
I10
tp1838
a(I181
I11
tp1839
a(I182
I12
tp1840
a(I183
I13
tp1841
a(I184
I10
tp1842
a(I185
I11
tp1843
a(I186
I12
tp1844
a(I187
I13
tp1845
a(I188
I10
tp1846
a(I189
I11
tp1847
a(I190
I12
tp1848
a(I191
I13
tp1849
a(I192
I10
tp1850
a(I193
I11
tp1851
a(I194
I12
tp1852
a(I195
I13
tp1853
a(I196
I10
tp1854
a(I197
I11
tp1855
a(I198
I12
tp1856
a(I199
I13
tp1857
a(I200
I10
tp1858
a(I201
I11
tp1859
a(I202
I12
tp1860
a(I203
I13
tp1861
a(I204
I10
tp1862
a(I205
I11
tp1863
a(I206
I12
tp1864
a(I207
I13
tp1865
a(I208
I10
tp1866
a(I209
I11
tp1867
a(I210
I12
tp1868
a(I211
I13
tp1869
a(I212
I10
tp1870
a(I213
I11
tp1871
a(I214
I12
tp1872
a(I215
I13
tp1873
a(I216
I10
tp1874
a(I217
I11
tp1875
a(I218
I12
tp1876
a(I219
I13
tp1877
a(I220
I10
tp1878
a(I221
I11
tp1879
a(I222
I12
tp1880
a(I223
I13
tp1881
a(I224
I10
tp1882
a(I225
I11
tp1883
a(I226
I12
tp1884
a(I227
I13
tp1885
a(I228
I10
tp1886
a(I229
I11
tp1887
a(I230
I12
tp1888
a(I231
I13
tp1889
a(I232
I10
tp1890
a(I233
I11
tp1891
a(I234
I12
tp1892
a(I235
I13
tp1893
a(I236
I10
tp1894
a(I237
I11
tp1895
a(I238
I12
tp1896
a(I239
I13
tp1897
a(I240
I10
tp1898
a(I241
I11
tp1899
a(I242
I12
tp1900
a(I243
I13
tp1901
a(I244
I10
tp1902
a(I245
I11
tp1903
a(I246
I12
tp1904
a(I247
I13
tp1905
a(I248
I10
tp1906
a(I249
I11
tp1907
a(I250
I12
tp1908
a(I251
I13
tp1909
a(I252
I10
tp1910
a(I253
I11
tp1911
a(I254
I12
tp1912
a(I255
I13
tp1913
a(I256
I10
tp1914
a(I257
I11
tp1915
a(I258
I12
tp1916
a(I259
I13
tp1917
a(I260
I10
tp1918
a(I261
I11
tp1919
a(I262
I12
tp1920
a(I263
I13
tp1921
a(I264
I10
tp1922
a(I265
I11
tp1923
a(I266
I12
tp1924
a(I267
I13
tp1925
a(I268
I10
tp1926
a(I269
I14
tp1927
a(I270
I14
tp1928
a(I271
I31
tp1929
asas.