(dp1
S'outputs'
p2
(lp3
V63\u000a
p4
asS'testcases'
p5
(lp6
S'print breakeven()'
p7
asS'traces'
p8
(lp9
(dp10
S'__return__'
p11
(lp12
(I0
S'myNaN'
p13
tp14
a(I1
g13
tp15
a(I2
g13
tp16
a(I3
g13
tp17
a(I4
g13
tp18
a(I5
g13
tp19
a(I6
g13
tp20
a(I7
g13
tp21
a(I8
g13
tp22
a(I9
g13
tp23
a(I10
g13
tp24
a(I11
g13
tp25
a(I12
g13
tp26
a(I13
I63
tp27
a(I14
g13
tp28
asS'__lineNo__'
p29
(lp30
(I0
I1
tp31
a(I1
I2
tp32
a(I2
I3
tp33
a(I3
I4
tp34
a(I4
I5
tp35
a(I5
I8
tp36
a(I6
I10
tp37
a(I7
I13
tp38
a(I8
I16
tp39
a(I9
I19
tp40
a(I10
I23
tp41
a(I11
I5
tp42
a(I12
I6
tp43
a(I13
I6
tp44
a(I14
I23
tp45
asas.