(dp1
S'outputs'
p2
(lp3
V12\u000a
p4
asS'testcases'
p5
(lp6
S'print breakeven()'
p7
asS'traces'
p8
(lp9
(dp10
S'pop_a'
p11
(lp12
(I0
S'myNaN'
p13
tp14
a(I1
g13
tp15
a(I2
g13
tp16
a(I3
g13
tp17
a(I4
g13
tp18
a(I5
g13
tp19
a(I6
g13
tp20
a(I7
g13
tp21
a(I8
g13
tp22
a(I9
g13
tp23
a(I10
g13
tp24
a(I11
g13
tp25
a(I12
g13
tp26
a(I13
I80000
tp27
a(I14
I80000
tp28
a(I15
I80000
tp29
a(I16
I80000
tp30
a(I17
I80000
tp31
a(I18
F88000
tp32
a(I19
F88000
tp33
a(I20
F88000
tp34
a(I21
F88000
tp35
a(I22
F96800
tp36
a(I23
F96800
tp37
a(I24
F96800
tp38
a(I25
F96800
tp39
a(I26
F106480
tp40
a(I27
F106480
tp41
a(I28
F106480
tp42
a(I29
F106480
tp43
a(I30
F117128
tp44
a(I31
F117128
tp45
a(I32
F117128
tp46
a(I33
F117128
tp47
a(I34
F128840.8
tp48
a(I35
F128840.8
tp49
a(I36
F128840.8
tp50
a(I37
F128840.8
tp51
a(I38
F141724.88
tp52
a(I39
F141724.88
tp53
a(I40
F141724.88
tp54
a(I41
F141724.88
tp55
a(I42
F155897.36800000002
tp56
a(I43
F155897.36800000002
tp57
a(I44
F155897.36800000002
tp58
a(I45
F155897.36800000002
tp59
a(I46
F171487.10480000003
tp60
a(I47
F171487.10480000003
tp61
a(I48
F171487.10480000003
tp62
a(I49
F171487.10480000003
tp63
a(I50
F188635.81528000004
tp64
a(I51
F188635.81528000004
tp65
a(I52
F188635.81528000004
tp66
a(I53
F188635.81528000004
tp67
a(I54
F207499.39680800005
tp68
a(I55
F207499.39680800005
tp69
a(I56
F207499.39680800005
tp70
a(I57
F207499.39680800005
tp71
a(I58
F228249.33648880007
tp72
a(I59
F228249.33648880007
tp73
a(I60
F228249.33648880007
tp74
a(I61
F228249.33648880007
tp75
a(I62
F251074.27013768008
tp76
a(I63
F251074.27013768008
tp77
a(I64
F251074.27013768008
tp78
a(I65
F251074.27013768008
tp79
a(I66
F251074.27013768008
tp80
a(I67
g13
tp81
asS'anos'
p82
(lp83
(I0
g13
tp84
a(I1
g13
tp85
a(I2
g13
tp86
a(I3
g13
tp87
a(I4
g13
tp88
a(I5
g13
tp89
a(I6
g13
tp90
a(I7
g13
tp91
a(I8
g13
tp92
a(I9
g13
tp93
a(I10
g13
tp94
a(I11
g13
tp95
a(I12
I0
tp96
a(I13
I0
tp97
a(I14
I0
tp98
a(I15
I0
tp99
a(I16
I0
tp100
a(I17
I0
tp101
a(I18
I0
tp102
a(I19
I0
tp103
a(I20
I1
tp104
a(I21
I1
tp105
a(I22
I1
tp106
a(I23
I1
tp107
a(I24
I2
tp108
a(I25
I2
tp109
a(I26
I2
tp110
a(I27
I2
tp111
a(I28
I3
tp112
a(I29
I3
tp113
a(I30
I3
tp114
a(I31
I3
tp115
a(I32
I4
tp116
a(I33
I4
tp117
a(I34
I4
tp118
a(I35
I4
tp119
a(I36
I5
tp120
a(I37
I5
tp121
a(I38
I5
tp122
a(I39
I5
tp123
a(I40
I6
tp124
a(I41
I6
tp125
a(I42
I6
tp126
a(I43
I6
tp127
a(I44
I7
tp128
a(I45
I7
tp129
a(I46
I7
tp130
a(I47
I7
tp131
a(I48
I8
tp132
a(I49
I8
tp133
a(I50
I8
tp134
a(I51
I8
tp135
a(I52
I9
tp136
a(I53
I9
tp137
a(I54
I9
tp138
a(I55
I9
tp139
a(I56
I10
tp140
a(I57
I10
tp141
a(I58
I10
tp142
a(I59
I10
tp143
a(I60
I11
tp144
a(I61
I11
tp145
a(I62
I11
tp146
a(I63
I11
tp147
a(I64
I12
tp148
a(I65
I12
tp149
a(I66
I12
tp150
a(I67
g13
tp151
asS'taxa_b'
p152
(lp153
(I0
g13
tp154
a(I1
g13
tp155
a(I2
g13
tp156
a(I3
g13
tp157
a(I4
g13
tp158
a(I5
g13
tp159
a(I6
g13
tp160
a(I7
g13
tp161
a(I8
g13
tp162
a(I9
g13
tp163
a(I10
g13
tp164
a(I11
g13
tp165
a(I12
g13
tp166
a(I13
g13
tp167
a(I14
g13
tp168
a(I15
g13
tp169
a(I16
F0.014999999999999999
tp170
a(I17
F0.014999999999999999
tp171
a(I18
F0.014999999999999999
tp172
a(I19
F0.014999999999999999
tp173
a(I20
F0.014999999999999999
tp174
a(I21
F0.014999999999999999
tp175
a(I22
F0.014999999999999999
tp176
a(I23
F0.014999999999999999
tp177
a(I24
F0.014999999999999999
tp178
a(I25
F0.014999999999999999
tp179
a(I26
F0.014999999999999999
tp180
a(I27
F0.014999999999999999
tp181
a(I28
F0.014999999999999999
tp182
a(I29
F0.014999999999999999
tp183
a(I30
F0.014999999999999999
tp184
a(I31
F0.014999999999999999
tp185
a(I32
F0.014999999999999999
tp186
a(I33
F0.014999999999999999
tp187
a(I34
F0.014999999999999999
tp188
a(I35
F0.014999999999999999
tp189
a(I36
F0.014999999999999999
tp190
a(I37
F0.014999999999999999
tp191
a(I38
F0.014999999999999999
tp192
a(I39
F0.014999999999999999
tp193
a(I40
F0.014999999999999999
tp194
a(I41
F0.014999999999999999
tp195
a(I42
F0.014999999999999999
tp196
a(I43
F0.014999999999999999
tp197
a(I44
F0.014999999999999999
tp198
a(I45
F0.014999999999999999
tp199
a(I46
F0.014999999999999999
tp200
a(I47
F0.014999999999999999
tp201
a(I48
F0.014999999999999999
tp202
a(I49
F0.014999999999999999
tp203
a(I50
F0.014999999999999999
tp204
a(I51
F0.014999999999999999
tp205
a(I52
F0.014999999999999999
tp206
a(I53
F0.014999999999999999
tp207
a(I54
F0.014999999999999999
tp208
a(I55
F0.014999999999999999
tp209
a(I56
F0.014999999999999999
tp210
a(I57
F0.014999999999999999
tp211
a(I58
F0.014999999999999999
tp212
a(I59
F0.014999999999999999
tp213
a(I60
F0.014999999999999999
tp214
a(I61
F0.014999999999999999
tp215
a(I62
F0.014999999999999999
tp216
a(I63
F0.014999999999999999
tp217
a(I64
F0.014999999999999999
tp218
a(I65
F0.014999999999999999
tp219
a(I66
F0.014999999999999999
tp220
a(I67
g13
tp221
asS'taxa_a'
p222
(lp223
(I0
g13
tp224
a(I1
g13
tp225
a(I2
g13
tp226
a(I3
g13
tp227
a(I4
g13
tp228
a(I5
g13
tp229
a(I6
g13
tp230
a(I7
g13
tp231
a(I8
g13
tp232
a(I9
g13
tp233
a(I10
g13
tp234
a(I11
g13
tp235
a(I12
g13
tp236
a(I13
g13
tp237
a(I14
g13
tp238
a(I15
F0.10000000000000001
tp239
a(I16
F0.10000000000000001
tp240
a(I17
F0.10000000000000001
tp241
a(I18
F0.10000000000000001
tp242
a(I19
F0.10000000000000001
tp243
a(I20
F0.10000000000000001
tp244
a(I21
F0.10000000000000001
tp245
a(I22
F0.10000000000000001
tp246
a(I23
F0.10000000000000001
tp247
a(I24
F0.10000000000000001
tp248
a(I25
F0.10000000000000001
tp249
a(I26
F0.10000000000000001
tp250
a(I27
F0.10000000000000001
tp251
a(I28
F0.10000000000000001
tp252
a(I29
F0.10000000000000001
tp253
a(I30
F0.10000000000000001
tp254
a(I31
F0.10000000000000001
tp255
a(I32
F0.10000000000000001
tp256
a(I33
F0.10000000000000001
tp257
a(I34
F0.10000000000000001
tp258
a(I35
F0.10000000000000001
tp259
a(I36
F0.10000000000000001
tp260
a(I37
F0.10000000000000001
tp261
a(I38
F0.10000000000000001
tp262
a(I39
F0.10000000000000001
tp263
a(I40
F0.10000000000000001
tp264
a(I41
F0.10000000000000001
tp265
a(I42
F0.10000000000000001
tp266
a(I43
F0.10000000000000001
tp267
a(I44
F0.10000000000000001
tp268
a(I45
F0.10000000000000001
tp269
a(I46
F0.10000000000000001
tp270
a(I47
F0.10000000000000001
tp271
a(I48
F0.10000000000000001
tp272
a(I49
F0.10000000000000001
tp273
a(I50
F0.10000000000000001
tp274
a(I51
F0.10000000000000001
tp275
a(I52
F0.10000000000000001
tp276
a(I53
F0.10000000000000001
tp277
a(I54
F0.10000000000000001
tp278
a(I55
F0.10000000000000001
tp279
a(I56
F0.10000000000000001
tp280
a(I57
F0.10000000000000001
tp281
a(I58
F0.10000000000000001
tp282
a(I59
F0.10000000000000001
tp283
a(I60
F0.10000000000000001
tp284
a(I61
F0.10000000000000001
tp285
a(I62
F0.10000000000000001
tp286
a(I63
F0.10000000000000001
tp287
a(I64
F0.10000000000000001
tp288
a(I65
F0.10000000000000001
tp289
a(I66
F0.10000000000000001
tp290
a(I67
g13
tp291
asS'__return__'
p292
(lp293
(I0
g13
tp294
a(I1
g13
tp295
a(I2
g13
tp296
a(I3
g13
tp297
a(I4
g13
tp298
a(I5
g13
tp299
a(I6
g13
tp300
a(I7
g13
tp301
a(I8
g13
tp302
a(I9
g13
tp303
a(I10
g13
tp304
a(I11
g13
tp305
a(I12
g13
tp306
a(I13
g13
tp307
a(I14
g13
tp308
a(I15
g13
tp309
a(I16
g13
tp310
a(I17
g13
tp311
a(I18
g13
tp312
a(I19
g13
tp313
a(I20
g13
tp314
a(I21
g13
tp315
a(I22
g13
tp316
a(I23
g13
tp317
a(I24
g13
tp318
a(I25
g13
tp319
a(I26
g13
tp320
a(I27
g13
tp321
a(I28
g13
tp322
a(I29
g13
tp323
a(I30
g13
tp324
a(I31
g13
tp325
a(I32
g13
tp326
a(I33
g13
tp327
a(I34
g13
tp328
a(I35
g13
tp329
a(I36
g13
tp330
a(I37
g13
tp331
a(I38
g13
tp332
a(I39
g13
tp333
a(I40
g13
tp334
a(I41
g13
tp335
a(I42
g13
tp336
a(I43
g13
tp337
a(I44
g13
tp338
a(I45
g13
tp339
a(I46
g13
tp340
a(I47
g13
tp341
a(I48
g13
tp342
a(I49
g13
tp343
a(I50
g13
tp344
a(I51
g13
tp345
a(I52
g13
tp346
a(I53
g13
tp347
a(I54
g13
tp348
a(I55
g13
tp349
a(I56
g13
tp350
a(I57
g13
tp351
a(I58
g13
tp352
a(I59
g13
tp353
a(I60
g13
tp354
a(I61
g13
tp355
a(I62
g13
tp356
a(I63
g13
tp357
a(I64
g13
tp358
a(I65
g13
tp359
a(I66
I12
tp360
a(I67
g13
tp361
asS'__lineNo__'
p362
(lp363
(I0
I1
tp364
a(I1
I2
tp365
a(I2
I3
tp366
a(I3
I4
tp367
a(I4
I16
tp368
a(I5
I18
tp369
a(I6
I21
tp370
a(I7
I24
tp371
a(I8
I27
tp372
a(I9
I31
tp373
a(I10
I4
tp374
a(I11
I5
tp375
a(I12
I6
tp376
a(I13
I7
tp377
a(I14
I8
tp378
a(I15
I9
tp379
a(I16
I10
tp380
a(I17
I11
tp381
a(I18
I12
tp382
a(I19
I13
tp383
a(I20
I10
tp384
a(I21
I11
tp385
a(I22
I12
tp386
a(I23
I13
tp387
a(I24
I10
tp388
a(I25
I11
tp389
a(I26
I12
tp390
a(I27
I13
tp391
a(I28
I10
tp392
a(I29
I11
tp393
a(I30
I12
tp394
a(I31
I13
tp395
a(I32
I10
tp396
a(I33
I11
tp397
a(I34
I12
tp398
a(I35
I13
tp399
a(I36
I10
tp400
a(I37
I11
tp401
a(I38
I12
tp402
a(I39
I13
tp403
a(I40
I10
tp404
a(I41
I11
tp405
a(I42
I12
tp406
a(I43
I13
tp407
a(I44
I10
tp408
a(I45
I11
tp409
a(I46
I12
tp410
a(I47
I13
tp411
a(I48
I10
tp412
a(I49
I11
tp413
a(I50
I12
tp414
a(I51
I13
tp415
a(I52
I10
tp416
a(I53
I11
tp417
a(I54
I12
tp418
a(I55
I13
tp419
a(I56
I10
tp420
a(I57
I11
tp421
a(I58
I12
tp422
a(I59
I13
tp423
a(I60
I10
tp424
a(I61
I11
tp425
a(I62
I12
tp426
a(I63
I13
tp427
a(I64
I10
tp428
a(I65
I14
tp429
a(I66
I14
tp430
a(I67
I31
tp431
asS'pop_b'
p432
(lp433
(I0
g13
tp434
a(I1
g13
tp435
a(I2
g13
tp436
a(I3
g13
tp437
a(I4
g13
tp438
a(I5
g13
tp439
a(I6
g13
tp440
a(I7
g13
tp441
a(I8
g13
tp442
a(I9
g13
tp443
a(I10
g13
tp444
a(I11
g13
tp445
a(I12
g13
tp446
a(I13
g13
tp447
a(I14
I200000
tp448
a(I15
I200000
tp449
a(I16
I200000
tp450
a(I17
I200000
tp451
a(I18
I200000
tp452
a(I19
F203000
tp453
a(I20
F203000
tp454
a(I21
F203000
tp455
a(I22
F203000
tp456
a(I23
F206045
tp457
a(I24
F206045
tp458
a(I25
F206045
tp459
a(I26
F206045
tp460
a(I27
F209135.67499999999
tp461
a(I28
F209135.67499999999
tp462
a(I29
F209135.67499999999
tp463
a(I30
F209135.67499999999
tp464
a(I31
F212272.71012499998
tp465
a(I32
F212272.71012499998
tp466
a(I33
F212272.71012499998
tp467
a(I34
F212272.71012499998
tp468
a(I35
F215456.800776875
tp469
a(I36
F215456.800776875
tp470
a(I37
F215456.800776875
tp471
a(I38
F215456.800776875
tp472
a(I39
F218688.65278852812
tp473
a(I40
F218688.65278852812
tp474
a(I41
F218688.65278852812
tp475
a(I42
F218688.65278852812
tp476
a(I43
F221968.98258035604
tp477
a(I44
F221968.98258035604
tp478
a(I45
F221968.98258035604
tp479
a(I46
F221968.98258035604
tp480
a(I47
F225298.51731906139
tp481
a(I48
F225298.51731906139
tp482
a(I49
F225298.51731906139
tp483
a(I50
F225298.51731906139
tp484
a(I51
F228677.99507884731
tp485
a(I52
F228677.99507884731
tp486
a(I53
F228677.99507884731
tp487
a(I54
F228677.99507884731
tp488
a(I55
F232108.16500503002
tp489
a(I56
F232108.16500503002
tp490
a(I57
F232108.16500503002
tp491
a(I58
F232108.16500503002
tp492
a(I59
F235589.78748010547
tp493
a(I60
F235589.78748010547
tp494
a(I61
F235589.78748010547
tp495
a(I62
F235589.78748010547
tp496
a(I63
F239123.63429230705
tp497
a(I64
F239123.63429230705
tp498
a(I65
F239123.63429230705
tp499
a(I66
F239123.63429230705
tp500
a(I67
g13
tp501
asas.